(dp1
(S'('
S'left'
p2
tp3
(imultinomial
Multinomial
p4
(dp5
S'counts'
p6
ccollections
defaultdict
p7
(c__builtin__
float
p8
tRp9
sS'total'
p10
F0
sS'prob'
p11
g7
(g8
tRp12
S'PRP$'
p13
F0.0041843661191288493
sS'VBG'
p14
F0.0077313887425508971
sS'FW'
p15
F0.0049742360050531211
sS'``'
p16
F0.018018701419262016
sS','
F0.0026724202051526163
sS"''"
p17
F0.0026724202051526163
sS'VBP'
p18
F0.015641462993722266
sS'WDT'
p19
F0.0026724202051526163
sS'JJ'
p20
F0.017636283646356353
sS'WP'
p21
F0.0026724202051526163
sS'VBZ'
p22
F0.016007306328370097
sS'DT'
p23
F0.027502442335022206
sS'#'
F0.0026724202051526163
sS'RP'
p24
F0.0052917730029727701
sS'$'
F0.0026724202051526163
sS'NN'
p25
F0.095649546590521328
sS')'
F0.0026724202051526163
sS'('
F0.0026724202051526163
sS'VBD'
p26
F0.014597791771799545
sS'POS'
p27
F0.0057899288779647284
sS'.'
F0.093217883360915257
sS'TO'
p28
F0.0070333547969045349
sS'PRP'
p29
F0.022694173434772605
sS'RB'
p30
F0.015350155359713038
sS':'
F0.024236617825980637
sS'NNS'
p31
F0.028605727508130351
sS'NNP'
p32
F0.432002199681502
sS'VB'
p33
F0.016482460451800345
sS'WRB'
p34
F0.0026724202051526163
sS'CC'
p35
F0.0078636962404842539
sS'LS'
p36
F0.0026724202051526163
sS'PDT'
p37
F0.0026724202051526163
sS'RBS'
p38
F0.0026724202051526163
sS'RBR'
p39
F0.0026724202051526163
sS'VBN'
p40
F0.004466616349513515
sS'EX'
p41
F0.0061800281010763016
sS'IN'
p42
F0.025865132046667193
sS'WP$'
p43
F0.0026724202051526163
sS'CD'
p44
F0.025364504461353719
sS'MD'
p45
F0.0042897350267147184
sS'NNPS'
p46
F0.0040871444406239098
sS'JJS'
p47
F0.0038041995935296524
sS'JJR'
p48
F0.0026724202051526163
sS'SYM'
p49
F0.0026724202051526163
sS'UH'
p50
F0.0026724202051526163
ssbs(S'RP'
g2
tp51
(imultinomial
Multinomial
p52
(dp53
g6
g7
(g8
tRp54
sg10
F0
sg11
g7
(g8
tRp55
S'PRP$'
p56
F0.006642736565020374
sS'VBG'
p57
F0.061834163935115559
sS'FW'
p58
F0.0014583518744941929
sS'``'
p59
F0.011627287992223267
sS','
F0.017933929749343495
sS"''"
p60
F0.0013869154293896684
sS'VBP'
p61
F0.050483735392184509
sS'WDT'
p62
F0.0013611498576980535
sS'JJ'
p63
F0.024241468664323931
sS'WP'
p64
F0.0047845228852555158
sS'VBZ'
p65
F0.078593969577242059
sS'DT'
p66
F0.050978744210728948
sS'#'
F0.00070125810447773968
sS'RP'
p67
F0.0025245406680351168
sS'$'
F0.00097090588311687508
sS'NN'
p68
F0.090661082469641177
sS')'
F0.00070125810447773968
sS'('
F0.0010640180210702813
sS'VBD'
p69
F0.095902302485025834
sS'POS'
p70
F0.0039676664448181709
sS'.'
F0.00070125810447773968
sS'TO'
p71
F0.031154070460594555
sS'PRP'
p72
F0.06107721973768844
sS'RB'
p73
F0.053436779942256603
sS':'
F0.0028712703456923059
sS'NNS'
p74
F0.052395012800144518
sS'NNP'
p75
F0.036360982200314321
sS'VB'
p76
F0.11553728216830181
sS'WRB'
p77
F0.00413889522959217
sS'CC'
p78
F0.017890600900786886
sS'LS'
p79
F0.00070125810447773968
sS'PDT'
p80
F0.00092796845781504666
sS'RBS'
p81
F0.00095826369250623096
sS'RBR'
p82
F0.00070125810447773968
sS'VBN'
p83
F0.055643733470226608
sS'EX'
p84
F0.0010597984787078568
sS'IN'
p85
F0.020981784541885384
sS'WP$'
p86
F0.00070125810447773968
sS'CD'
p87
F0.0056152646227874674
sS'MD'
p88
F0.020998455501416421
sS'NNPS'
p89
F0.0021728868597828883
sS'JJS'
p90
F0.0022438056988699781
sS'JJR'
p91
F0.0016367330660165779
sS'SYM'
p92
F0.00070125810447773968
sS'UH'
p93
F0.0015728929885431813
ssbs(S'RBR'
g2
tp94
(imultinomial
Multinomial
p95
(dp96
g6
g7
(g8
tRp97
sg10
F0
sg11
g7
(g8
tRp98
S'PRP$'
p99
F0.0068829213983949995
sS'VBG'
p100
F0.029053118234502771
sS'FW'
p101
F0.0011216624502235254
sS'``'
p102
F0.0114635530239342
sS','
F0.023862847717397818
sS"''"
p103
F0.0011216624502235254
sS'VBP'
p104
F0.050475479207262836
sS'WDT'
p105
F0.0019260538241332279
sS'JJ'
p106
F0.034485455514384589
sS'WP'
p107
F0.0036183114094806117
sS'VBZ'
p108
F0.052994944482159037
sS'DT'
p109
F0.089998343686142998
sS'#'
F0.0011216624502235254
sS'RP'
p110
F0.0066400347385869333
sS'$'
F0.0025241493489412598
sS'NN'
p111
F0.10828236858538173
sS')'
F0.0011216624502235254
sS'('
F0.0018179439037253372
sS'VBD'
p112
F0.082917312738536891
sS'POS'
p113
F0.0073284682180974007
sS'.'
F0.0011216624502235254
sS'TO'
p114
F0.016962471843006328
sS'PRP'
p115
F0.033627380072816508
sS'RB'
p116
F0.10437875164044662
sS':'
F0.0014436261244209561
sS'NNS'
p117
F0.092818484670280893
sS'NNP'
p118
F0.0493623945308483
sS'VB'
p119
F0.042751517248263267
sS'WRB'
p120
F0.0013524226979374583
sS'CC'
p121
F0.016783779409526453
sS'LS'
p122
F0.0011216624502235254
sS'PDT'
p123
F0.0027899035570120873
sS'RBS'
p124
F0.0011216624502235254
sS'RBR'
p125
F0.0016314375012438953
sS'VBN'
p126
F0.027353589410862664
sS'EX'
p127
F0.0022133814196930767
sS'IN'
p128
F0.03300891265465692
sS'WP$'
p129
F0.0011216624502235254
sS'CD'
p130
F0.022613953156364438
sS'MD'
p131
F0.013067231596997044
sS'NNPS'
p132
F0.005316998324585845
sS'JJS'
p133
F0.0026568583838883172
sS'JJR'
p134
F0.0043789752238509814
sS'SYM'
p135
F0.0011216624502235254
sS'UH'
p136
F0.0011216624502235254
ssbs(S'JJS'
S'right'
p137
tp138
(imultinomial
Multinomial
p139
(dp140
g6
g7
(g8
tRp141
sg10
F0
sg11
g7
(g8
tRp142
S'PRP$'
p143
F0.0091581398090454652
sS'VBG'
p144
F0.0078919008533214884
sS'FW'
p145
F0.00079108478908083849
sS'``'
p146
F0.0010566420685264079
sS','
F0.021189922342047213
sS"''"
p147
F0.0061294842645575167
sS'VBP'
p148
F0.034918360187552483
sS'WDT'
p149
F0.00079108478908083849
sS'JJ'
p150
F0.078152406345837949
sS'WP'
p151
F0.0019070446684160943
sS'VBZ'
p152
F0.013611831050199523
sS'DT'
p153
F0.0479114091687632
sS'#'
F0.00079108478908083849
sS'RP'
p154
F0.002608089339293376
sS'$'
F0.0075790901974889619
sS'NN'
p155
F0.20442070337171492
sS')'
F0.001400001747589403
sS'('
F0.001101235139178724
sS'VBD'
p156
F0.028139663470226756
sS'POS'
p157
F0.0035550622804028432
sS'.'
F0.12284912035118828
sS'TO'
p158
F0.013543433115845776
sS'PRP'
p159
F0.015746779797542656
sS'RB'
p160
F0.018345120778072078
sS':'
F0.0031098606236338697
sS'NNS'
p161
F0.12293245633522797
sS'NNP'
p162
F0.025122239885095956
sS'VB'
p163
F0.01187665005382753
sS'WRB'
p164
F0.0018088315906236998
sS'CC'
p165
F0.0058955673634404765
sS'LS'
p166
F0.00079108478908083849
sS'PDT'
p167
F0.005553192266146781
sS'RBS'
p168
F0.0011973893614551675
sS'RBR'
p169
F0.0016471301749075434
sS'VBN'
p170
F0.01607036159211769
sS'EX'
p171
F0.0041142322818988625
sS'IN'
p172
F0.099365378859721881
sS'WP$'
p173
F0.00079108478908083849
sS'CD'
p174
F0.037413843930894385
sS'MD'
p175
F0.0094008186775964338
sS'NNPS'
p176
F0.0025495696674624115
sS'JJS'
p177
F0.0016802325807923541
sS'JJR'
p178
F0.0035092108847798601
sS'SYM'
p179
F0.00079108478908083849
sS'UH'
p180
F0.00079108478908083849
ssbs(S'``'
g2
tp181
(imultinomial
Multinomial
p182
(dp183
g6
g7
(g8
tRp184
sg10
F0
sg11
g7
(g8
tRp185
S'PRP$'
p186
F0.0094294085728871459
sS'VBG'
p187
F0.010023947599640237
sS'FW'
p188
F0.00087288499045337176
sS'``'
p189
F0.0068156819098350264
sS','
F0.094229918025355588
sS"''"
p190
F0.0045837714866249707
sS'VBP'
p191
F0.028207902026948853
sS'WDT'
p192
F0.0022507266980017842
sS'JJ'
p193
F0.040325637378082146
sS'WP'
p194
F0.0042036297383191666
sS'VBZ'
p195
F0.069091271119145023
sS'DT'
p196
F0.11409921829907013
sS'#'
F0.00087288499045337176
sS'RP'
p197
F0.0045537630681186016
sS'$'
F0.00087288499045337176
sS'NN'
p198
F0.095141544044475945
sS')'
F0.0038944311693396858
sS'('
F0.0057141230942072546
sS'VBD'
p199
F0.057318315621108701
sS'POS'
p200
F0.015698594233212682
sS'.'
F0.0048942910288735817
sS'TO'
p201
F0.014363838763122262
sS'PRP'
p202
F0.053732320627836283
sS'RB'
p203
F0.03358673129672933
sS':'
F0.050839820828261481
sS'NNS'
p204
F0.029519994312915455
sS'NNP'
p205
F0.076271563126476136
sS'VB'
p206
F0.028208533146018615
sS'WRB'
p207
F0.0015297802643112195
sS'CC'
p208
F0.024329312298339713
sS'LS'
p209
F0.00087288499045337176
sS'PDT'
p210
F0.00087288499045337176
sS'RBS'
p211
F0.0017369860959913226
sS'RBR'
p212
F0.0011565489736854485
sS'VBN'
p213
F0.017395298329155356
sS'EX'
p214
F0.0030705351412659851
sS'IN'
p215
F0.06766173037724485
sS'WP$'
p216
F0.00087288499045337176
sS'CD'
p217
F0.0050846883687358123
sS'MD'
p218
F0.0084068183080981077
sS'NNPS'
p219
F0.0013432256057388471
sS'JJS'
p220
F0.0011809432188194444
sS'JJR'
p221
F0.0031220758803809194
sS'SYM'
p222
F0.00087288499045337176
sS'UH'
p223
F0.00087288499045337176
ssbs(S"''"
g137
tp224
(imultinomial
Multinomial
p225
(dp226
g6
g7
(g8
tRp227
sg10
F0
sg11
g7
(g8
tRp228
S'PRP$'
p229
F0.0047043005451913181
sS'VBG'
p230
F0.0015437866866805444
sS'FW'
p231
F0.00062620508025642153
sS'``'
p232
F0.0034074317257237153
sS','
F0.0062000075057294162
sS"''"
p233
F0.017068325163549551
sS'VBP'
p234
F0.0052684358433540924
sS'WDT'
p235
F0.0018874604080028089
sS'JJ'
p236
F0.017661911487155416
sS'WP'
p237
F0.00062620508025642153
sS'VBZ'
p238
F0.11842156900805743
sS'DT'
p239
F0.041764835013886253
sS'#'
F0.00062620508025642153
sS'RP'
p240
F0.001295672330958988
sS'$'
F0.00062620508025642153
sS'NN'
p241
F0.058512991620592515
sS')'
F0.008660554660206092
sS'('
F0.00062620508025642153
sS'VBD'
p242
F0.099381404790492317
sS'POS'
p243
F0.0019755457547248551
sS'.'
F0.17641936932878363
sS'TO'
p244
F0.0041516732261953626
sS'PRP'
p245
F0.17857135887699563
sS'RB'
p246
F0.015835797922136709
sS':'
F0.0030098787013233103
sS'NNS'
p247
F0.02194915611156073
sS'NNP'
p248
F0.13908599498664809
sS'VB'
p249
F0.0053847369721520951
sS'WRB'
p250
F0.001830147022499212
sS'CC'
p251
F0.0091394109181024349
sS'LS'
p252
F0.00062620508025642153
sS'PDT'
p253
F0.00062620508025642153
sS'RBS'
p254
F0.00062620508025642153
sS'RBR'
p255
F0.00062620508025642153
sS'VBN'
p256
F0.0048830022589057293
sS'EX'
p257
F0.00062620508025642153
sS'IN'
p258
F0.02404019361638654
sS'WP$'
p259
F0.00062620508025642153
sS'CD'
p260
F0.011021475818608153
sS'MD'
p261
F0.0056873713673096186
sS'NNPS'
p262
F0.00062620508025642153
sS'JJS'
p263
F0.00084752783890680149
sS'JJR'
p264
F0.0016218013655904535
sS'SYM'
p265
F0.00062620508025642153
sS'UH'
p266
F0.00062620508025642153
ssbs(S'DT'
g137
tp267
(imultinomial
Multinomial
p268
(dp269
g6
g7
(g8
tRp270
sg10
F0
sg11
g7
(g8
tRp271
S'PRP$'
p272
F0.0031156981896899002
sS'VBG'
p273
F0.0098635270587025242
sS'FW'
p274
F0.00039199959214191425
sS'``'
p275
F0.0026234022760691111
sS','
F0.015766763956313223
sS"''"
p276
F0.0083317000308043496
sS'VBP'
p277
F0.013409789516242164
sS'WDT'
p278
F0.0014093414833956075
sS'JJ'
p279
F0.10928002012906717
sS'WP'
p280
F0.00097890721111961506
sS'VBZ'
p281
F0.030725467329160847
sS'DT'
p282
F0.029255665290153488
sS'#'
F7.7578044660873546e-05
sS'RP'
p283
F0.0013721197139298427
sS'$'
F0.0045896517856935945
sS'NN'
p284
F0.2910910193498264
sS')'
F0.0006553255427111486
sS'('
F0.00018397792091051439
sS'VBD'
p285
F0.027848426179321865
sS'POS'
p286
F0.0062230403990371263
sS'.'
F0.11425515215579375
sS'TO'
p287
F0.011039473969902999
sS'PRP'
p288
F0.0069583781966999943
sS'RB'
p289
F0.026472781872674312
sS':'
F0.002509813310540651
sS'NNS'
p290
F0.07509712439128749
sS'NNP'
p291
F0.065087333064792072
sS'VB'
p292
F0.01403634185274112
sS'WRB'
p293
F0.00060262747176040602
sS'CC'
p294
F0.0076472550707263418
sS'LS'
p295
F2.2096466721935591e-05
sS'PDT'
p296
F0.00016251433440287651
sS'RBS'
p297
F0.0015135194452043524
sS'RBR'
p298
F0.0016233995404765539
sS'VBN'
p299
F0.015467100394393319
sS'EX'
p300
F0.00017005673908391495
sS'IN'
p301
F0.055423019118447658
sS'WP$'
p302
F4.2609730281932919e-05
sS'CD'
p303
F0.022079249759597613
sS'MD'
p304
F0.010603679924041711
sS'NNPS'
p305
F0.0039650391901237449
sS'JJS'
p306
F0.0046460446579321959
sS'JJR'
p307
F0.0032220513884286791
sS'SYM'
p308
F5.5632753434815743e-05
sS'UH'
p309
F0.00010428420155850171
ssbs(S'EX'
g137
tp310
(imultinomial
Multinomial
p311
(dp312
g6
g7
(g8
tRp313
sg10
F0
sg11
g7
(g8
tRp314
S'PRP$'
p315
F0.0022399487709797898
sS'VBG'
p316
F0.0051248956426046492
sS'FW'
p317
F0.0010599667106238957
sS'``'
p318
F0.0030387126489443994
sS','
F0.015529694301160227
sS"''"
p319
F0.012831059928418596
sS'VBP'
p320
F0.086967961969482352
sS'WDT'
p321
F0.0031404532947660472
sS'JJ'
p322
F0.053017779137944858
sS'WP'
p323
F0.0018026175584655686
sS'VBZ'
p324
F0.16362709464248532
sS'DT'
p325
F0.098307379544456786
sS'#'
F0.0010599667106238957
sS'RP'
p326
F0.001570111103337709
sS'$'
F0.001651969394748943
sS'NN'
p327
F0.10687617595853839
sS')'
F0.0015201750898827535
sS'('
F0.0019547133421220705
sS'VBD'
p328
F0.073126043065669957
sS'POS'
p329
F0.0042841398065402323
sS'.'
F0.067817444971323304
sS'TO'
p330
F0.013780623107889696
sS'PRP'
p331
F0.0088329201837139947
sS'RB'
p332
F0.046732485957987707
sS':'
F0.0039961418608156548
sS'NNS'
p333
F0.043632800352914065
sS'NNP'
p334
F0.012315551473973179
sS'VB'
p335
F0.02515470064564751
sS'WRB'
p336
F0.0022790888979548922
sS'CC'
p337
F0.0061158569271634825
sS'LS'
p338
F0.0010599667106238957
sS'PDT'
p339
F0.0010599667106238957
sS'RBS'
p340
F0.0010599667106238957
sS'RBR'
p341
F0.0017488876624501073
sS'VBN'
p342
F0.011808635396668415
sS'EX'
p343
F0.0010599667106238957
sS'IN'
p344
F0.04720339345932624
sS'WP$'
p345
F0.0010599667106238957
sS'CD'
p346
F0.016730358244148522
sS'MD'
p347
F0.029576573599190411
sS'NNPS'
p348
F0.0013364153753523196
sS'JJS'
p349
F0.0010599667106238957
sS'JJR'
p350
F0.013727529576692613
sS'SYM'
p351
F0.0010599667106238957
sS'UH'
p352
F0.0010599667106238957
ssbs(S'TO'
g137
tp353
(imultinomial
Multinomial
p354
(dp355
g6
g7
(g8
tRp356
sg10
F0
sg11
g7
(g8
tRp357
S'PRP$'
p358
F0.0084909576907477875
sS'VBG'
p359
F0.0051209085362450626
sS'FW'
p360
F9.3706698068678966e-05
sS'``'
p361
F0.0015179384018144928
sS','
F0.0089334800133501167
sS"''"
p362
F0.010203639685858955
sS'VBP'
p363
F0.0015133060514431497
sS'WDT'
p364
F0.00091421181194055912
sS'JJ'
p365
F0.043630995497718636
sS'WP'
p366
F0.00077215156499814376
sS'VBZ'
p367
F0.0040331956953739995
sS'DT'
p368
F0.074541581511224253
sS'#'
F0.00049581088999431583
sS'RP'
p369
F0.0041966853326945814
sS'$'
F0.045234522548135779
sS'NN'
p370
F0.095473683503167275
sS')'
F0.00034594265731408328
sS'('
F0.00024569019474694282
sS'VBD'
p371
F0.004032529112846032
sS'POS'
p372
F0.0033946672076985251
sS'.'
F0.1445189144486187
sS'TO'
p373
F0.0063969494445881847
sS'PRP'
p374
F0.010722312279544951
sS'RB'
p375
F0.013768307393937362
sS':'
F0.0015348511097853549
sS'NNS'
p376
F0.050548262692522612
sS'NNP'
p377
F0.037132920895888974
sS'VB'
p378
F0.21436395410848771
sS'WRB'
p379
F0.00066345718460262475
sS'CC'
p380
F0.0065216886983737428
sS'LS'
p381
F9.3706698068678966e-05
sS'PDT'
p382
F0.00043339217919423719
sS'RBS'
p383
F0.000266238855589466
sS'RBR'
p384
F0.001442852382998845
sS'VBN'
p385
F0.0091602353667940613
sS'EX'
p386
F0.00015419811114118293
sS'IN'
p387
F0.052259056606488996
sS'WP$'
p388
F9.3706698068678966e-05
sS'CD'
p389
F0.13018723511235408
sS'MD'
p390
F0.0010881585476689292
sS'NNPS'
p391
F0.00070286670033896902
sS'JJS'
p392
F0.00087568260430224824
sS'JJR'
p393
F0.0036040766283858411
sS'SYM'
p394
F9.3706698068678966e-05
sS'UH'
p395
F0.00018766394880599067
ssbs(S'VBG'
g2
tp396
(imultinomial
Multinomial
p397
(dp398
g6
g7
(g8
tRp399
sg10
F0
sg11
g7
(g8
tRp400
S'PRP$'
p401
F0.0044350014762984148
sS'VBG'
p402
F0.010926646269726654
sS'FW'
p403
F0.00015963475784636509
sS'``'
p404
F0.017878231456240269
sS','
F0.041045174451048924
sS"''"
p405
F0.00037675528519322076
sS'VBP'
p406
F0.08853472854572722
sS'WDT'
p407
F0.0022387383636957056
sS'JJ'
p408
F0.041749548933323166
sS'WP'
p409
F0.0036187285830050053
sS'VBZ'
p410
F0.0893465879922095
sS'DT'
p411
F0.081599156418905472
sS'#'
F0.00015963475784636509
sS'RP'
p412
F0.0038337910137622648
sS'$'
F0.00066394147054635907
sS'NN'
p413
F0.090156027522155915
sS')'
F0.00075956709176155815
sS'('
F0.0010482275822671235
sS'VBD'
p414
F0.047215361135682039
sS'POS'
p415
F0.0054724801489842347
sS'.'
F0.00015963475784636509
sS'TO'
p416
F0.0085328020392277937
sS'PRP'
p417
F0.045103568527732361
sS'RB'
p418
F0.07843430242616678
sS':'
F0.0017907128754337137
sS'NNS'
p419
F0.085650999031467112
sS'NNP'
p420
F0.055263345110659154
sS'VB'
p421
F0.022829811499019005
sS'WRB'
p422
F0.0023327525223627104
sS'CC'
p423
F0.025208549356043001
sS'LS'
p424
F0.00020280270589906861
sS'PDT'
p425
F0.00069397833099472993
sS'RBS'
p426
F0.00039065762624813043
sS'RBR'
p427
F0.00082953575800876888
sS'VBN'
p428
F0.023523262547752912
sS'EX'
p429
F0.00092950804339766296
sS'IN'
p430
F0.091181559295296838
sS'WP$'
p431
F0.00015963475784636509
sS'CD'
p432
F0.010691918324457638
sS'MD'
p433
F0.0069479013718558016
sS'NNPS'
p434
F0.002930003897985315
sS'JJS'
p435
F0.0017768006269428371
sS'JJR'
p436
F0.0025722001543876274
sS'SYM'
p437
F0.00048616039889574838
sS'UH'
p438
F0.00015963475784636509
ssbs(S'NNS'
g2
tp439
(imultinomial
Multinomial
p440
(dp441
g6
g7
(g8
tRp442
sg10
F0
sg11
g7
(g8
tRp443
S'PRP$'
p444
F0.015026616524230213
sS'VBG'
p445
F0.020238992548882631
sS'FW'
p446
F0.00012944057398222406
sS'``'
p447
F0.0094879527714715108
sS','
F0.024302142057483853
sS"''"
p448
F0.001059430886944575
sS'VBP'
p449
F0.020426232986879695
sS'WDT'
p450
F0.0012793221658198492
sS'JJ'
p451
F0.15086982995816745
sS'WP'
p452
F0.0015256212344356827
sS'VBZ'
p453
F0.024209778882186037
sS'DT'
p454
F0.12232302350709773
sS'#'
F4.6670629352693297e-05
sS'RP'
p455
F0.0028033025063400989
sS'$'
F0.00091988789486519159
sS'NN'
p456
F0.13881406475836638
sS')'
F0.00023037190117577042
sS'('
F0.00054509050781814683
sS'VBD'
p457
F0.02843972731221045
sS'POS'
p458
F0.010466353251362089
sS'.'
F0.00016505800279946613
sS'TO'
p459
F0.016200976698989865
sS'PRP'
p460
F0.013690795418552006
sS'RB'
p461
F0.028823629499577823
sS':'
F0.0044158254697126446
sS'NNS'
p462
F0.045859704492320422
sS'NNP'
p463
F0.056800785906535471
sS'VB'
p464
F0.026178972061478168
sS'WRB'
p465
F0.0018962964728501948
sS'CC'
p466
F0.033056428391879042
sS'LS'
p467
F0.0002084759403252649
sS'PDT'
p468
F0.0010753713651175305
sS'RBS'
p469
F0.00073866455750203704
sS'RBR'
p470
F0.00095320661869067905
sS'VBN'
p471
F0.016996755390589719
sS'EX'
p472
F0.0015649074099493621
sS'IN'
p473
F0.094716220001597864
sS'WP$'
p474
F0.00015150142094118467
sS'CD'
p475
F0.061578488945364766
sS'MD'
p476
F0.0065652487798630223
sS'NNPS'
p477
F0.0013382991607380674
sS'JJS'
p478
F0.0054520013028682831
sS'JJR'
p479
F0.0077813248908318536
sS'SYM'
p480
F0.00048445317840240264
sS'UH'
p481
F0.00016275576345060698
ssbs(S','
g137
tp482
(imultinomial
Multinomial
p483
(dp484
g6
g7
(g8
tRp485
sg10
F0
sg11
g7
(g8
tRp486
S'PRP$'
p487
F0.0064794419307062324
sS'VBG'
p488
F0.016524589324469929
sS'FW'
p489
F0.00019925591603288251
sS'``'
p490
F0.0068868631979231709
sS','
F0.021467725517397288
sS"''"
p491
F0.035910038942369611
sS'VBP'
p492
F0.018479081220691893
sS'WDT'
p493
F0.0042527778913374779
sS'JJ'
p494
F0.051665844705813348
sS'WP'
p495
F0.0030792468572761688
sS'VBZ'
p496
F0.040789498678548204
sS'DT'
p497
F0.080937733941213452
sS'#'
F0.00018444038557656491
sS'RP'
p498
F0.0017155388659890814
sS'$'
F0.0057242119953252223
sS'NN'
p499
F0.092920454546549153
sS')'
F0.00077093611057986683
sS'('
F6.5235328177761843e-05
sS'VBD'
p500
F0.04695482619402877
sS'POS'
p501
F0.0033119856321882873
sS'.'
F0.10425632847091224
sS'TO'
p502
F0.012925245617410484
sS'PRP'
p503
F0.050513132393825488
sS'RB'
p504
F0.061126466081859565
sS':'
F0.0041975154723984274
sS'NNS'
p505
F0.049883840495557864
sS'NNP'
p506
F0.095148355014802011
sS'VB'
p507
F0.015380942913820193
sS'WRB'
p508
F0.0015066433103349125
sS'CC'
p509
F0.026951326029594748
sS'LS'
p510
F6.5235328177761843e-05
sS'PDT'
p511
F0.0003856469706192645
sS'RBS'
p512
F0.00064965270025345312
sS'RBR'
p513
F0.0013876274843133754
sS'VBN'
p514
F0.016467644399671917
sS'EX'
p515
F0.0032786235291133968
sS'IN'
p516
F0.055761780350959265
sS'WP$'
p517
F8.253854033087305e-05
sS'CD'
p518
F0.040972631368284385
sS'MD'
p519
F0.010889687762246698
sS'NNPS'
p520
F0.0027618478277785297
sS'JJS'
p521
F0.0017050460550963515
sS'JJR'
p522
F0.0040234829002712327
sS'SYM'
p523
F0.00017934960487355525
sS'UH'
p524
F0.0011796821952994889
ssbs(S'UH'
g137
tp525
(imultinomial
Multinomial
p526
(dp527
g6
g7
(g8
tRp528
sg10
F0
sg11
g7
(g8
tRp529
S'PRP$'
p530
F0.013478562851419325
sS'VBG'
p531
F0.0042080062010269575
sS'FW'
p532
F0.0042080062010269575
sS'``'
p533
F0.0042080062010269575
sS','
F0.13328051203342528
sS"''"
p534
F0.030819197489481628
sS'VBP'
p535
F0.010515418446916931
sS'WDT'
p536
F0.0042080062010269575
sS'JJ'
p537
F0.02277324334412581
sS'WP'
p538
F0.0042080062010269575
sS'VBZ'
p539
F0.00706790943067989
sS'DT'
p540
F0.031101178672292725
sS'#'
F0.0042080062010269575
sS'RP'
p541
F0.0079518370390727292
sS'$'
F0.0042080062010269575
sS'NN'
p542
F0.02520074823295456
sS')'
F0.03974691373213031
sS'('
F0.0042080062010269575
sS'VBD'
p543
F0.0078751947036824893
sS'POS'
p544
F0.0042080062010269575
sS'.'
F0.35166643084576299
sS'TO'
p545
F0.040927416437527196
sS'PRP'
p546
F0.01744808698630439
sS'RB'
p547
F0.019250660478898778
sS':'
F0.0042080062010269575
sS'NNS'
p548
F0.017458446794206786
sS'NNP'
p549
F0.024301445544850066
sS'VB'
p550
F0.017097401535973295
sS'WRB'
p551
F0.0042080062010269575
sS'CC'
p552
F0.0042080062010269575
sS'LS'
p553
F0.0042080062010269575
sS'PDT'
p554
F0.0042080062010269575
sS'RBS'
p555
F0.0042080062010269575
sS'RBR'
p556
F0.0042080062010269575
sS'VBN'
p557
F0.010583345361771532
sS'EX'
p558
F0.0042080062010269575
sS'IN'
p559
F0.013543006354543453
sS'WP$'
p560
F0.0042080062010269575
sS'CD'
p561
F0.010477541548596708
sS'MD'
p562
F0.0094049580892148037
sS'NNPS'
p563
F0.0042080062010269575
sS'JJS'
p564
F0.0042080062010269575
sS'JJR'
p565
F0.0060252288519427773
sS'SYM'
p566
F0.0042080062010269575
sS'UH'
p567
F0.043637184972658491
ssbs(S':'
g2
tp568
(imultinomial
Multinomial
p569
(dp570
g6
g7
(g8
tRp571
sg10
F0
sg11
g7
(g8
tRp572
S'PRP$'
p573
F0.0035896322606632485
sS'VBG'
p574
F0.004342409375854
sS'FW'
p575
F0.00039884218295839968
sS'``'
p576
F0.0029616399880072683
sS','
F0.014943052067528884
sS"''"
p577
F0.0014487900620634752
sS'VBP'
p578
F0.010512942752595761
sS'WDT'
p579
F0.0006570024702549725
sS'JJ'
p580
F0.061083673138702284
sS'WP'
p581
F0.0024744175542267071
sS'VBZ'
p582
F0.020546934574837781
sS'DT'
p583
F0.034236320979829489
sS'#'
F0.00030619079089947934
sS'RP'
p584
F0.00095534295139817484
sS'$'
F0.0018212141617682065
sS'NN'
p585
F0.23998655758016454
sS')'
F0.018423988297168434
sS'('
F0.008717487141468928
sS'VBD'
p586
F0.010766769278988992
sS'POS'
p587
F0.0024613501862222205
sS'.'
F0.0037012017624115639
sS'TO'
p588
F0.0041964096252568037
sS'PRP'
p589
F0.013066593349712758
sS'RB'
p590
F0.027958168312662932
sS':'
F0.0074634010853143092
sS'NNS'
p591
F0.13108223416438158
sS'NNP'
p592
F0.21875774073031498
sS'VB'
p593
F0.0082805033700501761
sS'WRB'
p594
F0.00045411165957368917
sS'CC'
p595
F0.0088065783527352132
sS'LS'
p596
F0.0057372599816577488
sS'PDT'
p597
F0.00049252439337187841
sS'RBS'
p598
F0.0012596440893788377
sS'RBR'
p599
F0.00061095932862291577
sS'VBN'
p600
F0.0084687548270267945
sS'EX'
p601
F0.0013911996436615926
sS'IN'
p602
F0.023545806113200372
sS'WP$'
p603
F0.00030619079089947934
sS'CD'
p604
F0.042761212942221044
sS'MD'
p605
F0.0027440276423832959
sS'NNPS'
p606
F0.018207698182782745
sS'JJS'
p607
F0.0013095553695483446
sS'JJR'
p608
F0.00054804156989021443
sS'SYM'
p609
F0.027909434126440112
sS'UH'
p610
F0.00030619079089947934
ssbs(S'VBZ'
g137
tp611
(imultinomial
Multinomial
p612
(dp613
g6
g7
(g8
tRp614
sg10
F0
sg11
g7
(g8
tRp615
S'PRP$'
p616
F0.0087920361944059649
sS'VBG'
p617
F0.030570297206061661
sS'FW'
p618
F0.00013675053442653261
sS'``'
p619
F0.0042021496218250572
sS','
F0.019142983625232195
sS"''"
p620
F0.010577576552155327
sS'VBP'
p621
F0.003708909872326074
sS'WDT'
p622
F0.0009257831534402875
sS'JJ'
p623
F0.08981610696978809
sS'WP'
p624
F0.0024610580993589784
sS'VBZ'
p625
F0.0086994879021198672
sS'DT'
p626
F0.11086056332902365
sS'#'
F0.00011139466634217234
sS'RP'
p627
F0.0062252263674798143
sS'$'
F0.0055203822541704519
sS'NN'
p628
F0.110297405975362
sS')'
F0.00069960468282047187
sS'('
F0.00031553169965480623
sS'VBD'
p629
F0.0037619724690070434
sS'POS'
p630
F0.0042214737555583016
sS'.'
F0.13509847256457944
sS'TO'
p631
F0.032646749531119013
sS'PRP'
p632
F0.01950426393853268
sS'RB'
p633
F0.084617477337499261
sS':'
F0.0039199106565812446
sS'NNS'
p634
F0.042110942271780485
sS'NNP'
p635
F0.044806952021907057
sS'VB'
p636
F0.023805074872766931
sS'WRB'
p637
F0.0021008394276597403
sS'CC'
p638
F0.011448710731270512
sS'LS'
p639
F5.6056875904514487e-05
sS'PDT'
p640
F0.00043267581135407191
sS'RBS'
p641
F0.00072839684260120688
sS'RBR'
p642
F0.0025907090619650113
sS'VBN'
p643
F0.058684946466557544
sS'EX'
p644
F0.00039872761485250873
sS'IN'
p645
F0.078447765870729255
sS'WP$'
p646
F8.2077087286043526e-05
sS'CD'
p647
F0.025346863259962014
sS'MD'
p648
F0.0033628926726600584
sS'NNPS'
p649
F0.00078909899462814115
sS'JJS'
p650
F0.0019537265733186224
sS'JJR'
p651
F0.0058890432392814385
sS'SYM'
p652
F5.6056875904514487e-05
sS'UH'
p653
F7.4874468740191642e-05
ssbs(S'MD'
g137
tp654
(imultinomial
Multinomial
p655
(dp656
g6
g7
(g8
tRp657
sg10
F0
sg11
g7
(g8
tRp658
S'PRP$'
p659
F0.0090317141018246352
sS'VBG'
p660
F0.0068139985404654067
sS'FW'
p661
F0.00019166663130843592
sS'``'
p662
F0.0013997288499566557
sS','
F0.010024876777891583
sS"''"
p663
F0.012379729559098348
sS'VBP'
p664
F0.0018754602584907442
sS'WDT'
p665
F0.00089382187776895859
sS'JJ'
p666
F0.041919813067048249
sS'WP'
p667
F0.00079546246162270472
sS'VBZ'
p668
F0.0035237212095529146
sS'DT'
p669
F0.057474784552371726
sS'#'
F0.00015856560903281967
sS'RP'
p670
F0.0046117478231658552
sS'$'
F0.0030724096114733666
sS'NN'
p671
F0.068372424666567844
sS')'
F0.00038040720193253382
sS'('
F0.0002402692625420971
sS'VBD'
p672
F0.0023985913587174319
sS'POS'
p673
F0.0024830071060606869
sS'.'
F0.10799562995389489
sS'TO'
p674
F0.019779462099081845
sS'PRP'
p675
F0.016387162079093888
sS'RB'
p676
F0.11617611811039072
sS':'
F0.0014906426896537902
sS'NNS'
p677
F0.033042419441149558
sS'NNP'
p678
F0.023558254293417361
sS'VB'
p679
F0.33702607468839957
sS'WRB'
p680
F0.001267106811599862
sS'CC'
p681
F0.0072273285121357252
sS'LS'
p682
F0.00015856560903281967
sS'PDT'
p683
F0.0002380603996575624
sS'RBS'
p684
F0.00031521935956513791
sS'RBR'
p685
F0.0018899015440384029
sS'VBN'
p686
F0.031321976186279403
sS'EX'
p687
F0.00015856560903281967
sS'IN'
p688
F0.052167305874890338
sS'WP$'
p689
F0.00015856560903281967
sS'CD'
p690
F0.013079453767965894
sS'MD'
p691
F0.0013598566318160827
sS'NNPS'
p692
F0.00066347516596043123
sS'JJS'
p693
F0.0010653013049018714
sS'JJR'
p694
F0.0051142225140504288
sS'SYM'
p695
F0.00015856560903281967
sS'UH'
p696
F0.00015856560903281967
ssbs(S'SYM'
g2
tp697
(imultinomial
Multinomial
p698
(dp699
g6
g7
(g8
tRp700
sg10
F0
sg11
g7
(g8
tRp701
S'PRP$'
p702
F0.013320425355619381
sS'VBG'
p703
F0.013320425355619381
sS'FW'
p704
F0.013320425355619381
sS'``'
p705
F0.013320425355619381
sS','
F0.029251831096559502
sS"''"
p706
F0.013320425355619381
sS'VBP'
p707
F0.013320425355619381
sS'WDT'
p708
F0.013320425355619381
sS'JJ'
p709
F0.036807568798348962
sS'WP'
p710
F0.013320425355619381
sS'VBZ'
p711
F0.013320425355619381
sS'DT'
p712
F0.027423543226863672
sS'#'
F0.013320425355619381
sS'RP'
p713
F0.013320425355619381
sS'$'
F0.023202008570393916
sS'NN'
p714
F0.19484581807606238
sS')'
F0.013320425355619381
sS'('
F0.013320425355619381
sS'VBD'
p715
F0.013320425355619381
sS'POS'
p716
F0.013320425355619381
sS'.'
F0.013320425355619381
sS'TO'
p717
F0.013320425355619381
sS'PRP'
p718
F0.013320425355619381
sS'RB'
p719
F0.013320425355619381
sS':'
F0.052752427904696531
sS'NNS'
p720
F0.029251831096559502
sS'NNP'
p721
F0.044528024149303937
sS'VB'
p722
F0.013320425355619381
sS'WRB'
p723
F0.013320425355619381
sS'CC'
p724
F0.013320425355619381
sS'LS'
p725
F0.013320425355619381
sS'PDT'
p726
F0.013320425355619381
sS'RBS'
p727
F0.013320425355619381
sS'RBR'
p728
F0.013320425355619381
sS'VBN'
p729
F0.020275252227298826
sS'EX'
p730
F0.013320425355619381
sS'IN'
p731
F0.013320425355619381
sS'WP$'
p732
F0.013320425355619381
sS'CD'
p733
F0.075446807407234265
sS'MD'
p734
F0.013320425355619381
sS'NNPS'
p735
F0.013320425355619381
sS'JJS'
p736
F0.013320425355619381
sS'JJR'
p737
F0.013320425355619381
sS'SYM'
p738
F0.013320425355619381
sS'UH'
p739
F0.013320425355619381
ssbs(S'NNS'
g137
tp740
(imultinomial
Multinomial
p741
(dp742
g6
g7
(g8
tRp743
sg10
F0
sg11
g7
(g8
tRp744
S'PRP$'
p745
F0.004219463706034641
sS'VBG'
p746
F0.015464327238496571
sS'FW'
p747
F0.00014202876114808791
sS'``'
p748
F0.00093551364890714624
sS','
F0.033988160358391813
sS"''"
p749
F0.0085849489745610033
sS'VBP'
p750
F0.075602277822765254
sS'WDT'
p751
F0.0030321847849478878
sS'JJ'
p752
F0.043489187034783709
sS'WP'
p753
F0.0013968537874651259
sS'VBZ'
p754
F0.0084274419419365764
sS'DT'
p755
F0.039167523081735933
sS'#'
F6.104989344909962e-05
sS'RP'
p756
F0.0021467753686031411
sS'$'
F0.0047691739569648249
sS'NN'
p757
F0.06436378897351
sS')'
F0.00059193559393924677
sS'('
F0.00032207923022244437
sS'VBD'
p758
F0.066820835990251765
sS'POS'
p759
F0.0047522619780039988
sS'.'
F0.24175965218569956
sS'TO'
p760
F0.022793538073831221
sS'PRP'
p761
F0.0076572140872846021
sS'RB'
p762
F0.046083314516952835
sS':'
F0.013863663762849768
sS'NNS'
p763
F0.04259820293220138
sS'NNP'
p764
F0.024989829253116311
sS'VB'
p765
F0.020391636246146587
sS'WRB'
p766
F0.00073123176914988099
sS'CC'
p767
F0.02189567894258802
sS'LS'
p768
F3.0490294587189116e-05
sS'PDT'
p769
F0.00029488414452489328
sS'RBS'
p770
F0.00050730216347978131
sS'RBR'
p771
F0.0024414097647001047
sS'VBN'
p772
F0.025989819085471676
sS'EX'
p773
F0.00023370987518297106
sS'IN'
p774
F0.099359238852670312
sS'WP$'
p775
F0.00011186156742584124
sS'CD'
p776
F0.026348065947840612
sS'MD'
p777
F0.017811312654762934
sS'NNPS'
p778
F0.00061969093780581976
sS'JJS'
p779
F0.00092252720304209065
sS'JJR'
p780
F0.0040968738653485619
sS'SYM'
p781
F6.6957092100106258e-05
sS'UH'
p782
F0.00012408265511861704
ssbs(S'NNPS'
g2
tp783
(imultinomial
Multinomial
p784
(dp785
g6
g7
(g8
tRp786
sg10
F0
sg11
g7
(g8
tRp787
S'PRP$'
p788
F0.0025657532504886121
sS'VBG'
p789
F0.0060512932353365759
sS'FW'
p790
F0.00075921408692705846
sS'``'
p791
F0.004484394582630875
sS','
F0.030532497061813716
sS"''"
p792
F0.00075921408692705846
sS'VBP'
p793
F0.01405669126685693
sS'WDT'
p794
F0.00075921408692705846
sS'JJ'
p795
F0.052395847873892926
sS'WP'
p796
F0.0026104777829570121
sS'VBZ'
p797
F0.010649999905783546
sS'DT'
p798
F0.1535191295758303
sS'#'
F0.00075921408692705846
sS'RP'
p799
F0.0020582815615034452
sS'$'
F0.00075921408692705846
sS'NN'
p800
F0.04941796185890724
sS')'
F0.00075921408692705846
sS'('
F0.0033213001929481263
sS'VBD'
p801
F0.010544301284735049
sS'POS'
p802
F0.0053774266229439736
sS'.'
F0.00075921408692705846
sS'TO'
p803
F0.0059173591823359723
sS'PRP'
p804
F0.0070176689664998137
sS'RB'
p805
F0.017870507317509034
sS':'
F0.019138304245504938
sS'NNS'
p806
F0.016376110049370805
sS'NNP'
p807
F0.39953206791713103
sS'VB'
p808
F0.0059378222216609454
sS'WRB'
p809
F0.0025640289156839162
sS'CC'
p810
F0.042909350901263819
sS'LS'
p811
F0.00075921408692705846
sS'PDT'
p812
F0.00099874978142027089
sS'RBS'
p813
F0.00075921408692705846
sS'RBR'
p814
F0.0021154303631631785
sS'VBN'
p815
F0.0098750539742944159
sS'EX'
p816
F0.00097912265075354981
sS'IN'
p817
F0.06436549761269808
sS'WP$'
p818
F0.00075921408692705846
sS'CD'
p819
F0.010982085961708144
sS'MD'
p820
F0.0031469630409842455
sS'NNPS'
p821
F0.029879283886422265
sS'JJS'
p822
F0.0025721676885569942
sS'JJR'
p823
F0.0011265002232860315
sS'SYM'
p824
F0.00075921408692705846
sS'UH'
p825
F0.00075921408692705846
ssbs(S'PRP'
g2
tp826
(imultinomial
Multinomial
p827
(dp828
g6
g7
(g8
tRp829
sg10
F0
sg11
g7
(g8
tRp830
S'PRP$'
p831
F0.0037537609722082445
sS'VBG'
p832
F0.013038729596934405
sS'FW'
p833
F0.0001163182509259896
sS'``'
p834
F0.14211943576530212
sS','
F0.090435553929970922
sS"''"
p835
F0.031692148231826957
sS'VBP'
p836
F0.0356163823408914
sS'WDT'
p837
F0.0024595621861530576
sS'JJ'
p838
F0.027879718833770332
sS'WP'
p839
F0.011838116646894133
sS'VBZ'
p840
F0.04206921051789389
sS'DT'
p841
F0.041846687132873088
sS'#'
F0.0001163182509259896
sS'RP'
p842
F0.0016319338366799277
sS'$'
F0.00035643107205161591
sS'NN'
p843
F0.057435857349377922
sS')'
F0.00025025582239425519
sS'('
F0.002376587652669761
sS'VBD'
p844
F0.054998175821217091
sS'POS'
p845
F0.0019925203477275106
sS'.'
F0.00064194602471374527
sS'TO'
p846
F0.012748899132670695
sS'PRP'
p847
F0.043095009985660196
sS'RB'
p848
F0.062258978015942268
sS':'
F0.0059183976619295291
sS'NNS'
p849
F0.030264737206023563
sS'NNP'
p850
F0.037538138686303561
sS'VB'
p851
F0.047291814721741376
sS'WRB'
p852
F0.0096814752511842732
sS'CC'
p853
F0.063353900453339468
sS'LS'
p854
F0.00091947629345347107
sS'PDT'
p855
F0.00038401208531506245
sS'RBS'
p856
F0.00029986252747518996
sS'RBR'
p857
F0.0012637265491746933
sS'VBN'
p858
F0.011306467424585942
sS'EX'
p859
F0.0011360244721818243
sS'IN'
p860
F0.084818603441297546
sS'WP$'
p861
F0.0001163182509259896
sS'CD'
p862
F0.0044752732953050817
sS'MD'
p863
F0.012711159361583003
sS'NNPS'
p864
F0.00170393719685037
sS'JJS'
p865
F0.0025543734633025417
sS'JJR'
p866
F0.0028414719022379388
sS'SYM'
p867
F0.0001163182509259896
sS'UH'
p868
F0.00053597378718812255
ssbs(S'#'
g137
tp869
(imultinomial
Multinomial
p870
(dp871
g6
g7
(g8
tRp872
sg10
F0
sg11
g7
(g8
tRp873
S'PRP$'
p874
F0.013019802567652923
sS'VBG'
p875
F0.013019802567652923
sS'FW'
p876
F0.013019802567652923
sS'``'
p877
F0.013019802567652923
sS','
F0.021481969056086615
sS"''"
p878
F0.013019802567652923
sS'VBP'
p879
F0.013019802567652923
sS'WDT'
p880
F0.013019802567652923
sS'JJ'
p881
F0.017477820543024745
sS'WP'
p882
F0.013019802567652923
sS'VBZ'
p883
F0.013019802567652923
sS'DT'
p884
F0.018097102460713138
sS'#'
F0.013019802567652923
sS'RP'
p885
F0.013019802567652923
sS'$'
F0.013019802567652923
sS'NN'
p886
F0.036294024748301811
sS')'
F0.013019802567652923
sS'('
F0.013019802567652923
sS'VBD'
p887
F0.01891265946343168
sS'POS'
p888
F0.013019802567652923
sS'.'
F0.09338996364609764
sS'TO'
p889
F0.013019802567652923
sS'PRP'
p890
F0.013019802567652923
sS'RB'
p891
F0.013019802567652923
sS':'
F0.013019802567652923
sS'NNS'
p892
F0.019706829530710644
sS'NNP'
p893
F0.013019802567652923
sS'VB'
p894
F0.013019802567652923
sS'WRB'
p895
F0.013019802567652923
sS'CC'
p896
F0.013019802567652923
sS'LS'
p897
F0.013019802567652923
sS'PDT'
p898
F0.013019802567652923
sS'RBS'
p899
F0.013019802567652923
sS'RBR'
p900
F0.013019802567652923
sS'VBN'
p901
F0.013019802567652923
sS'EX'
p902
F0.013019802567652923
sS'IN'
p903
F0.019172629534352139
sS'WP$'
p904
F0.013019802567652923
sS'CD'
p905
F0.28675410858177702
sS'MD'
p906
F0.013019802567652923
sS'NNPS'
p907
F0.013019802567652923
sS'JJS'
p908
F0.013019802567652923
sS'JJR'
p909
F0.013019802567652923
sS'SYM'
p910
F0.013019802567652923
sS'UH'
p911
F0.013019802567652923
ssbs(S'NNP'
g137
tp912
(imultinomial
Multinomial
p913
(dp914
g6
g7
(g8
tRp915
sg10
F0
sg11
g7
(g8
tRp916
S'PRP$'
p917
F0.0039448590728289809
sS'VBG'
p918
F0.0066481308422114554
sS'FW'
p919
F0.00013301394750132791
sS'``'
p920
F0.0016813157028810236
sS','
F0.038407728463453653
sS"''"
p921
F0.0035945245624301476
sS'VBP'
p922
F0.0067423487783721337
sS'WDT'
p923
F0.00065085757454698282
sS'JJ'
p924
F0.027424546235609491
sS'WP'
p925
F0.00085630919565441289
sS'VBZ'
p926
F0.052404151632479745
sS'DT'
p927
F0.031525032803377144
sS'#'
F5.6535091822592275e-05
sS'RP'
p928
F0.001043362417664575
sS'$'
F0.0027526292640028711
sS'NN'
p929
F0.080960188275308168
sS')'
F0.0045531376010700137
sS'('
F0.0032399469041303744
sS'VBD'
p930
F0.065350438813584003
sS'POS'
p931
F0.027968277661470326
sS'.'
F0.15642172803338078
sS'TO'
p932
F0.016501606930740428
sS'PRP'
p933
F0.0061489868199097828
sS'RB'
p934
F0.026376404969358492
sS':'
F0.017251547021239058
sS'NNS'
p935
F0.036143792129745424
sS'NNP'
p936
F0.22720862138273221
sS'VB'
p937
F0.014740062181523165
sS'WRB'
p938
F0.00037087733121225682
sS'CC'
p939
F0.018767592877013559
sS'LS'
p940
F2.2493597833176389e-05
sS'PDT'
p941
F0.00013155762160845153
sS'RBS'
p942
F0.00023735129332480386
sS'RBR'
p943
F0.00088504014277619605
sS'VBN'
p944
F0.011609851565418298
sS'EX'
p945
F0.00015873058034063362
sS'IN'
p946
F0.041748777499526338
sS'WP$'
p947
F3.7807020780780362e-05
sS'CD'
p948
F0.039779672674852259
sS'MD'
p949
F0.011907005459337894
sS'NNPS'
p950
F0.011001291556668364
sS'JJS'
p951
F0.00097084790700336851
sS'JJR'
p952
F0.0014946584221997505
sS'SYM'
p953
F7.3553714143078337e-05
sS'UH'
p954
F7.2806426932092402e-05
ssbs(S'JJR'
g2
tp955
(imultinomial
Multinomial
p956
(dp957
g6
g7
(g8
tRp958
sg10
F0
sg11
g7
(g8
tRp959
S'PRP$'
p960
F0.0069378962872788984
sS'VBG'
p961
F0.018075461236162847
sS'FW'
p962
F0.00051941290029016666
sS'``'
p963
F0.011042246641309497
sS','
F0.032670379492642045
sS"''"
p964
F0.001333405312257152
sS'VBP'
p965
F0.039111911253849593
sS'WDT'
p966
F0.0020084166448577595
sS'JJ'
p967
F0.036754951069713507
sS'WP'
p968
F0.0043973314927052273
sS'VBZ'
p969
F0.055766826821517873
sS'DT'
p970
F0.085302813950727543
sS'#'
F0.00051941290029016666
sS'RP'
p971
F0.0018862519801204757
sS'$'
F0.001179400202935941
sS'NN'
p972
F0.098804612946019263
sS')'
F0.0015180361879601366
sS'('
F0.0011545825887712084
sS'VBD'
p973
F0.090559402784978843
sS'POS'
p974
F0.0069685218489276739
sS'.'
F0.0012213222250066088
sS'TO'
p975
F0.019630658486892796
sS'PRP'
p976
F0.027896064503776578
sS'RB'
p977
F0.083703126298945038
sS':'
F0.0021169297513957694
sS'NNS'
p978
F0.073756351895854264
sS'NNP'
p979
F0.038057152033118158
sS'VB'
p980
F0.053640007890097256
sS'WRB'
p981
F0.0012842969389469487
sS'CC'
p982
F0.03812444401502537
sS'LS'
p983
F0.0014817911904799763
sS'PDT'
p984
F0.00051941290029016666
sS'RBS'
p985
F0.00051941290029016666
sS'RBR'
p986
F0.00084669463728534401
sS'VBN'
p987
F0.014306634151677449
sS'EX'
p988
F0.0077062665673759481
sS'IN'
p989
F0.072285651667124778
sS'WP$'
p990
F0.00051941290029016666
sS'CD'
p991
F0.035031512206839102
sS'MD'
p992
F0.016601684358481444
sS'NNPS'
p993
F0.0015477849453594459
sS'JJS'
p994
F0.0023540503735848335
sS'JJR'
p995
F0.008534792076409236
sS'SYM'
p996
F0.00094410442337746956
sS'UH'
p997
F0.00085916611876000906
ssbs(S'JJ'
g2
tp998
(imultinomial
Multinomial
p999
(dp1000
g6
g7
(g8
tRp1001
sg10
F0
sg11
g7
(g8
tRp1002
S'PRP$'
p1003
F0.014740751253292455
sS'VBG'
p1004
F0.013830036106349704
sS'FW'
p1005
F0.00021307335818188328
sS'``'
p1006
F0.013107249408514751
sS','
F0.02717987164117466
sS"''"
p1007
F0.00093381952709068556
sS'VBP'
p1008
F0.035359921630214758
sS'WDT'
p1009
F0.0013703973219534992
sS'JJ'
p1010
F0.058457732932445244
sS'WP'
p1011
F0.0012790215443774975
sS'VBZ'
p1012
F0.055515840548688834
sS'DT'
p1013
F0.18430674528488944
sS'#'
F4.4594733436370482e-05
sS'RP'
p1014
F0.0020250512170867448
sS'$'
F0.0019242898253633606
sS'NN'
p1015
F0.0755107687175159
sS')'
F0.00023836760962444423
sS'('
F0.00060583478247609355
sS'VBD'
p1016
F0.045555164337409547
sS'POS'
p1017
F0.011733795154171256
sS'.'
F0.00042183193672171675
sS'TO'
p1018
F0.015443459202791275
sS'PRP'
p1019
F0.023927309853981778
sS'RB'
p1020
F0.065136983363452347
sS':'
F0.0039314011967442209
sS'NNS'
p1021
F0.050410116573293591
sS'NNP'
p1022
F0.048067439415949986
sS'VB'
p1023
F0.03437055155635689
sS'WRB'
p1024
F0.0022999064636225813
sS'CC'
p1025
F0.032754311178840811
sS'LS'
p1026
F0.00039761246537619563
sS'PDT'
p1027
F0.00069287202712137099
sS'RBS'
p1028
F0.0033518874088442258
sS'RBR'
p1029
F0.005673944963371598
sS'VBN'
p1030
F0.020973261158304779
sS'EX'
p1031
F0.0020853139498358472
sS'IN'
p1032
F0.10588690644969394
sS'WP$'
p1033
F3.4056076198180775e-05
sS'CD'
p1034
F0.021996835642705825
sS'MD'
p1035
F0.0090563575510054107
sS'NNPS'
p1036
F0.0020371434977122897
sS'JJS'
p1037
F0.0036686805687815719
sS'JJR'
p1038
F0.0025186400973155471
sS'SYM'
p1039
F0.00072955016357175578
sS'UH'
p1040
F0.00020130030414920036
ssbs(S'WP$'
g2
tp1041
(imultinomial
Multinomial
p1042
(dp1043
g6
g7
(g8
tRp1044
sg10
F0
sg11
g7
(g8
tRp1045
S'PRP$'
p1046
F0.018094792903464638
sS'VBG'
p1047
F0.018094792903464638
sS'FW'
p1048
F0.018094792903464638
sS'``'
p1049
F0.018094792903464638
sS','
F0.023944674518401581
sS"''"
p1050
F0.018094792903464638
sS'VBP'
p1051
F0.018094792903464638
sS'WDT'
p1052
F0.018094792903464638
sS'JJ'
p1053
F0.035489318115362982
sS'WP'
p1054
F0.018094792903464638
sS'VBZ'
p1055
F0.026645930999051364
sS'DT'
p1056
F0.034754304783424991
sS'#'
F0.018094792903464638
sS'RP'
p1057
F0.018094792903464638
sS'$'
F0.018094792903464638
sS'NN'
p1058
F0.05801821957134088
sS')'
F0.018094792903464638
sS'('
F0.018094792903464638
sS'VBD'
p1059
F0.026404939867689447
sS'POS'
p1060
F0.018094792903464638
sS'.'
F0.018094792903464638
sS'TO'
p1061
F0.018094792903464638
sS'PRP'
p1062
F0.018094792903464638
sS'RB'
p1063
F0.018094792903464638
sS':'
F0.018094792903464638
sS'NNS'
p1064
F0.070747716496178142
sS'NNP'
p1065
F0.031346883417237091
sS'VB'
p1066
F0.018094792903464638
sS'WRB'
p1067
F0.018094792903464638
sS'CC'
p1068
F0.018094792903464638
sS'LS'
p1069
F0.018094792903464638
sS'PDT'
p1070
F0.018094792903464638
sS'RBS'
p1071
F0.018094792903464638
sS'RBR'
p1072
F0.018094792903464638
sS'VBN'
p1073
F0.018094792903464638
sS'EX'
p1074
F0.018094792903464638
sS'IN'
p1075
F0.041235467706587002
sS'WP$'
p1076
F0.018094792903464638
sS'CD'
p1077
F0.018094792903464638
sS'MD'
p1078
F0.018094792903464638
sS'NNPS'
p1079
F0.018094792903464638
sS'JJS'
p1080
F0.018094792903464638
sS'JJR'
p1081
F0.018094792903464638
sS'SYM'
p1082
F0.018094792903464638
sS'UH'
p1083
F0.018094792903464638
ssbs(S"''"
g2
tp1084
(imultinomial
Multinomial
p1085
(dp1086
g6
g7
(g8
tRp1087
sg10
F0
sg11
g7
(g8
tRp1088
S'PRP$'
p1089
F0.007243618359280583
sS'VBG'
p1090
F0.013038682456805921
sS'FW'
p1091
F0.0007711646413062714
sS'``'
p1092
F0.05121941870733835
sS','
F0.091742866427198172
sS"''"
p1093
F0.0037061579966263937
sS'VBP'
p1094
F0.023488210575503966
sS'WDT'
p1095
F0.0014310838344605459
sS'JJ'
p1096
F0.055518427215081871
sS'WP'
p1097
F0.0020500483216661079
sS'VBZ'
p1098
F0.025260848356713286
sS'DT'
p1099
F0.051684462538773637
sS'#'
F0.00017612841228106744
sS'RP'
p1100
F0.0035208449482914614
sS'$'
F0.00036105986001095037
sS'NN'
p1101
F0.10738256619276623
sS')'
F0.00052435280079485215
sS'('
F0.00057897961443424803
sS'VBD'
p1102
F0.01479740378050684
sS'POS'
p1103
F0.0026688867326219528
sS'.'
F0.25106138779552062
sS'TO'
p1104
F0.013911363437810891
sS'PRP'
p1105
F0.044786937162778706
sS'RB'
p1106
F0.044277614541827957
sS':'
F0.0027473032686495228
sS'NNS'
p1107
F0.038447522389169389
sS'NNP'
p1108
F0.023024233910302859
sS'VB'
p1109
F0.035583395517627389
sS'WRB'
p1110
F0.0019319631324946982
sS'CC'
p1111
F0.011167941399471016
sS'LS'
p1112
F0.00017612841228106744
sS'PDT'
p1113
F0.00065416420947448208
sS'RBS'
p1114
F0.00038997370737030036
sS'RBR'
p1115
F0.0017147291646744532
sS'VBN'
p1116
F0.012249198198153293
sS'EX'
p1117
F0.0019991771012110656
sS'IN'
p1118
F0.035833960385054417
sS'WP$'
p1119
F0.00017612841228106744
sS'CD'
p1120
F0.0054568654851937012
sS'MD'
p1121
F0.010213571687333507
sS'NNPS'
p1122
F0.001529240609853822
sS'JJS'
p1123
F0.0010264362365037434
sS'JJR'
p1124
F0.0033247661491927721
sS'SYM'
p1125
F0.00017612841228106744
sS'UH'
p1126
F0.00097465750102556129
ssbs(S'.'
g2
tp1127
(imultinomial
Multinomial
p1128
(dp1129
g6
g7
(g8
tRp1130
sg10
F0
sg11
g7
(g8
tRp1131
S'PRP$'
p1132
F0.0066375589111360095
sS'VBG'
p1133
F0.013052663247805097
sS'FW'
p1134
F0.00045108818770000662
sS'``'
p1135
F0.0058897775768161943
sS','
F0.018255135063235131
sS"''"
p1136
F0.0032009846223000687
sS'VBP'
p1137
F0.016736395233981041
sS'WDT'
p1138
F0.00097109091368769503
sS'JJ'
p1139
F0.075092217820388621
sS'WP'
p1140
F0.0015723247819246727
sS'VBZ'
p1141
F0.029183293132762658
sS'DT'
p1142
F0.064184857936402204
sS'#'
F8.6629821757859649e-05
sS'RP'
p1143
F0.0038123447471993125
sS'$'
F0.0068256179071850944
sS'NN'
p1144
F0.19750583487952916
sS')'
F0.00088875993778909262
sS'('
F0.00071771385754183868
sS'VBD'
p1145
F0.036322482997990915
sS'POS'
p1146
F0.0059368848264412469
sS'.'
F0.00068701943438549478
sS'TO'
p1147
F0.017649767961733422
sS'PRP'
p1148
F0.024785978565781748
sS'RB'
p1149
F0.051424840387030796
sS':'
F0.0046136717882916817
sS'NNS'
p1150
F0.10009592699010605
sS'NNP'
p1151
F0.088452803838655419
sS'VB'
p1152
F0.030157381625404635
sS'WRB'
p1153
F0.0012678273689727478
sS'CC'
p1154
F0.014248465791375415
sS'LS'
p1155
F0.00048907544557997911
sS'PDT'
p1156
F0.00040264309521848381
sS'RBS'
p1157
F0.00036795878441724182
sS'RBR'
p1158
F0.0024058730464649341
sS'VBN'
p1159
F0.027960491897846784
sS'EX'
p1160
F0.00089533556049248319
sS'IN'
p1161
F0.062835336931782532
sS'WP$'
p1162
F2.8463884236451521e-05
sS'CD'
p1163
F0.064334589016808302
sS'MD'
p1164
F0.0080641824266136294
sS'NNPS'
p1165
F0.0029250358953920828
sS'JJS'
p1166
F0.0019081195591832
sS'JJR'
p1167
F0.0050831253655367085
sS'SYM'
p1168
F0.00034026980057974809
sS'UH'
p1169
F0.0012521591345358305
ssbs(S'IN'
g2
tp1170
(imultinomial
Multinomial
p1171
(dp1172
g6
g7
(g8
tRp1173
sg10
F0
sg11
g7
(g8
tRp1174
S'PRP$'
p1175
F0.0053772303253131863
sS'VBG'
p1176
F0.017983326602964634
sS'FW'
p1177
F0.00012491793277048707
sS'``'
p1178
F0.0089835277465665792
sS','
F0.024436237221013662
sS"''"
p1179
F0.0010945770018011859
sS'VBP'
p1180
F0.024594958348395268
sS'WDT'
p1181
F0.0012559083112717178
sS'JJ'
p1182
F0.059964574718541129
sS'WP'
p1183
F0.0020472719640392155
sS'VBZ'
p1184
F0.041265203486736679
sS'DT'
p1185
F0.081731894836976945
sS'#'
F4.1073793953731662e-05
sS'RP'
p1186
F0.0045765713450386927
sS'$'
F0.0055522896266951213
sS'NN'
p1187
F0.189134927708348
sS')'
F0.00026860199468671297
sS'('
F0.0010311698662588435
sS'VBD'
p1188
F0.052945381547510835
sS'POS'
p1189
F0.0042966812123334903
sS'.'
F0.00011987084370910994
sS'TO'
p1190
F0.015479299402417665
sS'PRP'
p1191
F0.0257354557019711
sS'RB'
p1192
F0.05073354594170653
sS':'
F0.0023176578174709983
sS'NNS'
p1193
F0.096779802896609327
sS'NNP'
p1194
F0.060059981726605365
sS'VB'
p1195
F0.035955163228780729
sS'WRB'
p1196
F0.00095100416690809876
sS'CC'
p1197
F0.016030713464979352
sS'LS'
p1198
F0.00011444464826273081
sS'PDT'
p1199
F0.0002937036027684914
sS'RBS'
p1200
F0.0008925372188675506
sS'RBR'
p1201
F0.0036345752163348148
sS'VBN'
p1202
F0.052464424618360025
sS'EX'
p1203
F0.0015607475511296648
sS'IN'
p1204
F0.03997186157523442
sS'WP$'
p1205
F4.5667906026540544e-05
sS'CD'
p1206
F0.044710454767569199
sS'MD'
p1207
F0.0096641559030373868
sS'NNPS'
p1208
F0.0019399253947863077
sS'JJS'
p1209
F0.0039024143873876167
sS'JJR'
p1210
F0.0088664019298870505
sS'SYM'
p1211
F0.00095452283439780277
sS'UH'
p1212
F0.00011534166357630627
ssbs(S'VB'
g2
tp1213
(imultinomial
Multinomial
p1214
(dp1215
g6
g7
(g8
tRp1216
sg10
F0
sg11
g7
(g8
tRp1217
S'PRP$'
p1218
F0.0030461695170479692
sS'VBG'
p1219
F0.0092009166954270544
sS'FW'
p1220
F7.1396159430877238e-05
sS'``'
p1221
F0.019426489119908692
sS','
F0.016884569213560092
sS"''"
p1222
F0.00058534055280092521
sS'VBP'
p1223
F0.027513611259584132
sS'WDT'
p1224
F0.0019778769138940381
sS'JJ'
p1225
F0.028750466633716797
sS'WP'
p1226
F0.0033918451747062418
sS'VBZ'
p1227
F0.031670553495989684
sS'DT'
p1228
F0.055670580734703663
sS'#'
F7.1396159430877238e-05
sS'RP'
p1229
F0.00099730046164262518
sS'$'
F0.00037721073023742945
sS'NN'
p1230
F0.074294221228776242
sS')'
F0.00033454070481586689
sS'('
F0.00074475648206940779
sS'VBD'
p1231
F0.030397374595162216
sS'POS'
p1232
F0.0028471417036046473
sS'.'
F0.0011513987965843066
sS'TO'
p1233
F0.1619839390367952
sS'PRP'
p1234
F0.057099260774693017
sS'RB'
p1235
F0.11038707462706772
sS':'
F0.0019275670425292883
sS'NNS'
p1236
F0.05121982044060789
sS'NNP'
p1237
F0.054432577338286228
sS'VB'
p1238
F0.019622923626486526
sS'WRB'
p1239
F0.003423802779121929
sS'CC'
p1240
F0.024958247247231561
sS'LS'
p1241
F0.00086435925963666068
sS'PDT'
p1242
F0.00027308116979192222
sS'RBS'
p1243
F0.00036531631836110432
sS'RBR'
p1244
F0.00078453111077542105
sS'VBN'
p1245
F0.014628939516606716
sS'EX'
p1246
F0.0020792551037586786
sS'IN'
p1247
F0.02062122093334956
sS'WP$'
p1248
F7.1396159430877238e-05
sS'CD'
p1249
F0.0054188984543874956
sS'MD'
p1250
F0.15477912185839701
sS'NNPS'
p1251
F0.0019953659159990577
sS'JJS'
p1252
F0.0012386951540829553
sS'JJR'
p1253
F0.0020062795358731659
sS'SYM'
p1254
F7.1396159430877238e-05
sS'UH'
p1255
F0.00034177410420529428
ssbs(S'WDT'
g2
tp1256
(imultinomial
Multinomial
p1257
(dp1258
g6
g7
(g8
tRp1259
sg10
F0
sg11
g7
(g8
tRp1260
S'PRP$'
p1261
F0.0028725965365367667
sS'VBG'
p1262
F0.012252852537982195
sS'FW'
p1263
F0.0013859748167771634
sS'``'
p1264
F0.011454738171805401
sS','
F0.092795732630970601
sS"''"
p1265
F0.0041028806439625384
sS'VBP'
p1266
F0.026274932379397237
sS'WDT'
p1267
F0.003691253893460267
sS'JJ'
p1268
F0.046003313250799621
sS'WP'
p1269
F0.005593022886243265
sS'VBZ'
p1270
F0.025467458039703406
sS'DT'
p1271
F0.10034289262648323
sS'#'
F0.0013859748167771634
sS'RP'
p1272
F0.0020523257035552794
sS'$'
F0.0027744811221375224
sS'NN'
p1273
F0.187628280581569
sS')'
F0.0013859748167771634
sS'('
F0.0013859748167771634
sS'VBD'
p1274
F0.020944757076060146
sS'POS'
p1275
F0.003102694825793088
sS'.'
F0.0013859748167771634
sS'TO'
p1276
F0.013820455073212707
sS'PRP'
p1277
F0.027481715587999153
sS'RB'
p1278
F0.02484639121174451
sS':'
F0.0050355288903318291
sS'NNS'
p1279
F0.1447359705047826
sS'NNP'
p1280
F0.046616020720202891
sS'VB'
p1281
F0.03625077914038511
sS'WRB'
p1282
F0.0019480070964561426
sS'CC'
p1283
F0.014144801364184102
sS'LS'
p1284
F0.0013859748167771634
sS'PDT'
p1285
F0.0013859748167771634
sS'RBS'
p1286
F0.0013859748167771634
sS'RBR'
p1287
F0.002288135298539364
sS'VBN'
p1288
F0.0072631500984870756
sS'EX'
p1289
F0.004931444985282793
sS'IN'
p1290
F0.074486000115005307
sS'WP$'
p1291
F0.0013859748167771634
sS'CD'
p1292
F0.015988193372981189
sS'MD'
p1293
F0.0084322587546705029
sS'NNPS'
p1294
F0.0033410531040971216
sS'JJS'
p1295
F0.0013859748167771634
sS'JJR'
p1296
F0.0044041839738521351
sS'SYM'
p1297
F0.0013859748167771634
sS'UH'
p1298
F0.0013859748167771634
ssbs(S'PDT'
g137
tp1299
(imultinomial
Multinomial
p1300
(dp1301
g6
g7
(g8
tRp1302
sg10
F0
sg11
g7
(g8
tRp1303
S'PRP$'
p1304
F0.028165530946449274
sS'VBG'
p1305
F0.0099783938637781015
sS'FW'
p1306
F0.0028655699996721741
sS'``'
p1307
F0.0028655699996721741
sS','
F0.018561553219335246
sS"''"
p1308
F0.013297611519570237
sS'VBP'
p1309
F0.030799520223558932
sS'WDT'
p1310
F0.0028655699996721741
sS'JJ'
p1311
F0.051626095213154519
sS'WP'
p1312
F0.0059593027928405125
sS'VBZ'
p1313
F0.021301465607207224
sS'DT'
p1314
F0.33268045933865414
sS'#'
F0.0028655699996721741
sS'RP'
p1315
F0.0036256422952971241
sS'$'
F0.0028655699996721741
sS'NN'
p1316
F0.09241451188942805
sS')'
F0.0028655699996721741
sS'('
F0.0028655699996721741
sS'VBD'
p1317
F0.013266035040820362
sS'POS'
p1318
F0.0048571014424005571
sS'.'
F0.092296981038490766
sS'TO'
p1319
F0.0080913190606922217
sS'PRP'
p1320
F0.0080983023266932314
sS'RB'
p1321
F0.017175458707415946
sS':'
F0.0045906770255056892
sS'NNS'
p1322
F0.083771146253265691
sS'NNP'
p1323
F0.019833481086298552
sS'VB'
p1324
F0.0094631585317471907
sS'WRB'
p1325
F0.0042429062828692387
sS'CC'
p1326
F0.0060793546604653225
sS'LS'
p1327
F0.0028655699996721741
sS'PDT'
p1328
F0.0028655699996721741
sS'RBS'
p1329
F0.0039006342151722828
sS'RBR'
p1330
F0.0058517525443189415
sS'VBN'
p1331
F0.020996469845472238
sS'EX'
p1332
F0.0028655699996721741
sS'IN'
p1333
F0.025540210913969415
sS'WP$'
p1334
F0.0028655699996721741
sS'CD'
p1335
F0.004896253569714743
sS'MD'
p1336
F0.0073119610947193631
sS'NNPS'
p1337
F0.0039622624736062031
sS'JJS'
p1338
F0.0072464669816788953
sS'JJR'
p1339
F0.0028655699996721741
sS'SYM'
p1340
F0.0028655699996721741
sS'UH'
p1341
F0.0028655699996721741
ssbs(S')'
g2
tp1342
(imultinomial
Multinomial
p1343
(dp1344
g6
g7
(g8
tRp1345
sg10
F0
sg11
g7
(g8
tRp1346
S'PRP$'
p1347
F0.0045445560408604669
sS'VBG'
p1348
F0.010173585595774503
sS'FW'
p1349
F0.0022042248660667759
sS'``'
p1350
F0.0071563950946936248
sS','
F0.012741560373816354
sS"''"
p1351
F0.014851888794921357
sS'VBP'
p1352
F0.0096289346860402268
sS'WDT'
p1353
F0.0013799953378219418
sS'JJ'
p1354
F0.02202736760374718
sS'WP'
p1355
F0.0022052417192437016
sS'VBZ'
p1356
F0.014033446150175518
sS'DT'
p1357
F0.032610154372786811
sS'#'
F0.0013799953378219418
sS'RP'
p1358
F0.0020562914236944567
sS'$'
F0.012378914134908122
sS'NN'
p1359
F0.10486166099752961
sS')'
F0.0013799953378219418
sS'('
F0.092054712476920486
sS'VBD'
p1360
F0.014720368624419092
sS'POS'
p1361
F0.0034136696958796849
sS'.'
F0.16291449081425827
sS'TO'
p1362
F0.0040646736401222577
sS'PRP'
p1363
F0.012578662667619882
sS'RB'
p1364
F0.018509898497288964
sS':'
F0.023567744508111287
sS'NNS'
p1365
F0.020573425095180602
sS'NNP'
p1366
F0.24968824258579647
sS'VB'
p1367
F0.008011123826270181
sS'WRB'
p1368
F0.0048110310601627701
sS'CC'
p1369
F0.0082542448858061741
sS'LS'
p1370
F0.0054849111246923271
sS'PDT'
p1371
F0.0013799953378219418
sS'RBS'
p1372
F0.0013799953378219418
sS'RBR'
p1373
F0.0013799953378219418
sS'VBN'
p1374
F0.015015213010236471
sS'EX'
p1375
F0.0022856318342736096
sS'IN'
p1376
F0.028266210503836695
sS'WP$'
p1377
F0.0013799953378219418
sS'CD'
p1378
F0.042080939524275739
sS'MD'
p1379
F0.0028642418360461837
sS'NNPS'
p1380
F0.0023285972603289129
sS'JJS'
p1381
F0.002285185983818445
sS'JJR'
p1382
F0.0017531911924011931
sS'SYM'
p1383
F0.0013799953378219418
sS'UH'
p1384
F0.011959404795420014
ssbs(S'UH'
g2
tp1385
(imultinomial
Multinomial
p1386
(dp1387
g6
g7
(g8
tRp1388
sg10
F0
sg11
g7
(g8
tRp1389
S'PRP$'
p1390
F0.0062221676001048701
sS'VBG'
p1391
F0.01608760694448895
sS'FW'
p1392
F0.0062221676001048701
sS'``'
p1393
F0.16714963302965499
sS','
F0.10829542895488786
sS"''"
p1394
F0.0062221676001048701
sS'VBP'
p1395
F0.01216851071675254
sS'WDT'
p1396
F0.0062221676001048701
sS'JJ'
p1397
F0.027953254999731895
sS'WP'
p1398
F0.0062221676001048701
sS'VBZ'
p1399
F0.008418092548349786
sS'DT'
p1400
F0.037051301695187583
sS'#'
F0.0062221676001048701
sS'RP'
p1401
F0.0062221676001048701
sS'$'
F0.0062221676001048701
sS'NN'
p1402
F0.064574964361480372
sS')'
F0.013999877100235951
sS'('
F0.05825881480606411
sS'VBD'
p1403
F0.043573745405409495
sS'POS'
p1404
F0.0062221676001048701
sS'.'
F0.024888670400419474
sS'TO'
p1405
F0.012460972011974721
sS'PRP'
p1406
F0.019448495572348706
sS'RB'
p1407
F0.0094408869064861733
sS':'
F0.0062221676001048701
sS'NNS'
p1408
F0.025166505757704596
sS'NNP'
p1409
F0.025251175362674131
sS'VB'
p1410
F0.018608698987174953
sS'WRB'
p1411
F0.0062221676001048701
sS'CC'
p1412
F0.04634918292184953
sS'LS'
p1413
F0.0062221676001048701
sS'PDT'
p1414
F0.0062221676001048701
sS'RBS'
p1415
F0.0062221676001048701
sS'RBR'
p1416
F0.0062221676001048701
sS'VBN'
p1417
F0.0062221676001048701
sS'EX'
p1418
F0.0062221676001048701
sS'IN'
p1419
F0.039598074935840034
sS'WP$'
p1420
F0.0062221676001048701
sS'CD'
p1421
F0.0062221676001048701
sS'MD'
p1422
F0.0062221676001048701
sS'NNPS'
p1423
F0.0062221676001048701
sS'JJS'
p1424
F0.0062221676001048701
sS'JJR'
p1425
F0.0062221676001048701
sS'SYM'
p1426
F0.0062221676001048701
sS'UH'
p1427
F0.071924084178767639
ssbs(S'VBP'
g2
tp1428
(imultinomial
Multinomial
p1429
(dp1430
g6
g7
(g8
tRp1431
sg10
F0
sg11
g7
(g8
tRp1432
S'PRP$'
p1433
F0.00537807952901253
sS'VBG'
p1434
F0.0051443966388178882
sS'FW'
p1435
F0.00010699045740362105
sS'``'
p1436
F0.038154298506453715
sS','
F0.03115970833160122
sS"''"
p1437
F0.00086798849720651986
sS'VBP'
p1438
F0.010869524052764045
sS'WDT'
p1439
F0.0069228996186025665
sS'JJ'
p1440
F0.054388409206062291
sS'WP'
p1441
F0.0085579532158396067
sS'VBZ'
p1442
F0.007518874636288234
sS'DT'
p1443
F0.081528447090618933
sS'#'
F0.00010699045740362105
sS'RP'
p1444
F0.00069053182150625276
sS'$'
F0.00010699045740362105
sS'NN'
p1445
F0.061825202282060246
sS')'
F0.00037780093512739172
sS'('
F0.00093948435238610096
sS'VBD'
p1446
F0.0039729943991262144
sS'POS'
p1447
F0.0033957621231258113
sS'.'
F0.00028016270660231722
sS'TO'
p1448
F0.0017250846727365759
sS'PRP'
p1449
F0.16579601730101637
sS'RB'
p1450
F0.055096475372594676
sS':'
F0.0029682821597264513
sS'NNS'
p1451
F0.28579040544546341
sS'NNP'
p1452
F0.035777540518518593
sS'VB'
p1453
F0.0049170603617191694
sS'WRB'
p1454
F0.0039869615175262239
sS'CC'
p1455
F0.038229981634949284
sS'LS'
p1456
F0.00070053698234098566
sS'PDT'
p1457
F0.0014254225748898109
sS'RBS'
p1458
F0.00068235043305068328
sS'RBR'
p1459
F0.00091389061181346392
sS'VBN'
p1460
F0.0045528614791607519
sS'EX'
p1461
F0.010297266163617164
sS'IN'
p1462
F0.034930347451687015
sS'WP$'
p1463
F0.00030709103159574989
sS'CD'
p1464
F0.0097369488981928435
sS'MD'
p1465
F0.0013199720197825857
sS'NNPS'
p1466
F0.0097595748518510828
sS'JJS'
p1467
F0.0057400358723196645
sS'JJR'
p1468
F0.0025402024646790692
sS'SYM'
p1469
F0.00021524494895295966
sS'UH'
p1470
F0.0002969559164030375
ssbs(S'#'
g2
tp1471
(imultinomial
Multinomial
p1472
(dp1473
g6
g7
(g8
tRp1474
sg10
F0
sg11
g7
(g8
tRp1475
S'PRP$'
p1476
F0.018448717897445312
sS'VBG'
p1477
F0.024073591040675326
sS'FW'
p1478
F0.012189661452223305
sS'``'
p1479
F0.012189661452223305
sS','
F0.033268289349930265
sS"''"
p1480
F0.012189661452223305
sS'VBP'
p1481
F0.017444230317780265
sS'WDT'
p1482
F0.012189661452223305
sS'JJ'
p1483
F0.046323574539036266
sS'WP'
p1484
F0.012189661452223305
sS'VBZ'
p1485
F0.025545742289324266
sS'DT'
p1486
F0.045979656302668398
sS'#'
F0.012189661452223305
sS'RP'
p1487
F0.012189661452223305
sS'$'
F0.012189661452223305
sS'NN'
p1488
F0.056269282433508094
sS')'
F0.012189661452223305
sS'('
F0.012189661452223305
sS'VBD'
p1489
F0.02962062275824659
sS'POS'
p1490
F0.012189661452223305
sS'.'
F0.012189661452223305
sS'TO'
p1491
F0.062364347203777787
sS'PRP'
p1492
F0.012189661452223305
sS'RB'
p1493
F0.047295654834780418
sS':'
F0.012189661452223305
sS'NNS'
p1494
F0.024667620596018291
sS'NNP'
p1495
F0.03417256584346598
sS'VB'
p1496
F0.025901631405367071
sS'WRB'
p1497
F0.012189661452223305
sS'CC'
p1498
F0.022083654367841613
sS'LS'
p1499
F0.012189661452223305
sS'PDT'
p1500
F0.012189661452223305
sS'RBS'
p1501
F0.012189661452223305
sS'RBR'
p1502
F0.012189661452223305
sS'VBN'
p1503
F0.012189661452223305
sS'EX'
p1504
F0.012189661452223305
sS'IN'
p1505
F0.10565416805608134
sS'WP$'
p1506
F0.012189661452223305
sS'CD'
p1507
F0.03957613010179975
sS'MD'
p1508
F0.012189661452223305
sS'NNPS'
p1509
F0.012189661452223305
sS'JJS'
p1510
F0.012189661452223305
sS'JJR'
p1511
F0.012189661452223305
sS'SYM'
p1512
F0.012189661452223305
sS'UH'
p1513
F0.012189661452223305
ssbs(S'IN'
g137
tp1514
(imultinomial
Multinomial
p1515
(dp1516
g6
g7
(g8
tRp1517
sg10
F0
sg11
g7
(g8
tRp1518
S'PRP$'
p1519
F0.014117368109147359
sS'VBG'
p1520
F0.014598996089952019
sS'FW'
p1521
F0.00019002607867153526
sS'``'
p1522
F0.0019364756387563417
sS','
F0.022503407480084673
sS"''"
p1523
F0.0071094979357722759
sS'VBP'
p1524
F0.0077566514668978041
sS'WDT'
p1525
F0.001280067031950403
sS'JJ'
p1526
F0.07914905288982195
sS'WP'
p1527
F0.0011701991878848321
sS'VBZ'
p1528
F0.010489843662592918
sS'DT'
p1529
F0.13739922508366856
sS'#'
F0.00022535991462289964
sS'RP'
p1530
F0.00076830840742579502
sS'$'
F0.019449497283727045
sS'NN'
p1531
F0.15070234301830246
sS')'
F0.00069609713747317327
sS'('
F0.00024610090312847128
sS'VBD'
p1532
F0.013893548585696643
sS'POS'
p1533
F0.0061012146432695962
sS'.'
F0.14153566520975991
sS'TO'
p1534
F0.0072216002355951344
sS'PRP'
p1535
F0.018174920940483126
sS'RB'
p1536
F0.019943014110426573
sS':'
F0.0021526528866889715
sS'NNS'
p1537
F0.078212470455436556
sS'NNP'
p1538
F0.098993365423413665
sS'VB'
p1539
F0.0070323288663635816
sS'WRB'
p1540
F0.00071540461476303182
sS'CC'
p1541
F0.0091905304190309997
sS'LS'
p1542
F2.6186579475150044e-05
sS'PDT'
p1543
F0.001242216435419743
sS'RBS'
p1544
F0.00046135805196824431
sS'RBR'
p1545
F0.00074375890332108565
sS'VBN'
p1546
F0.0097214747053071815
sS'EX'
p1547
F0.0009492639871765651
sS'IN'
p1548
F0.035937757720606436
sS'WP$'
p1549
F5.883715234719384e-05
sS'CD'
p1550
F0.063083449507120554
sS'MD'
p1551
F0.0046648073969201625
sS'NNPS'
p1552
F0.0022237423261428097
sS'JJS'
p1553
F0.0042719828767176045
sS'JJR'
p1554
F0.0034783976366681282
sS'SYM'
p1555
F2.6186579475150044e-05
sS'UH'
p1556
F0.00015534643052550072
ssbs(S'PRP$'
g137
tp1557
(imultinomial
Multinomial
p1558
(dp1559
g6
g7
(g8
tRp1560
sg10
F0
sg11
g7
(g8
tRp1561
S'PRP$'
p1562
F0.0025891825703323415
sS'VBG'
p1563
F0.0070806275294377965
sS'FW'
p1564
F0.0004352830224609635
sS'``'
p1565
F0.0022717132388384827
sS','
F0.018503172511329134
sS"''"
p1566
F0.013525399829840988
sS'VBP'
p1567
F0.011591059506248736
sS'WDT'
p1568
F0.00049882466364753149
sS'JJ'
p1569
F0.10942283968513104
sS'WP'
p1570
F0.0007402066234832019
sS'VBZ'
p1571
F0.024661280034534432
sS'DT'
p1572
F0.024950975096135475
sS'#'
F0.00039687083369769699
sS'RP'
p1573
F0.0021127075931282029
sS'$'
F0.0016971425325148248
sS'NN'
p1574
F0.30830856609383456
sS')'
F0.0011098020067954034
sS'('
F0.00038394382121588146
sS'VBD'
p1575
F0.017654149871214355
sS'POS'
p1576
F0.0029451039637387729
sS'.'
F0.14437815808648982
sS'TO'
p1577
F0.011411808504766039
sS'PRP'
p1578
F0.0076405366520928769
sS'RB'
p1579
F0.021321563799495215
sS':'
F0.0028990436183109554
sS'NNS'
p1580
F0.12312676931757414
sS'NNP'
p1581
F0.029183833272745433
sS'VB'
p1582
F0.0097673375747402338
sS'WRB'
p1583
F0.00031105392212795087
sS'CC'
p1584
F0.0089602593925906544
sS'LS'
p1585
F0.00026222532806501698
sS'PDT'
p1586
F0.00050046314823400497
sS'RBS'
p1587
F0.0013620935740672163
sS'RBR'
p1588
F0.0014523132130977419
sS'VBN'
p1589
F0.011350266431390648
sS'EX'
p1590
F0.00043032273529700836
sS'IN'
p1591
F0.046015387386624231
sS'WP$'
p1592
F0.00026222532806501698
sS'CD'
p1593
F0.015257515918108361
sS'MD'
p1594
F0.004614849613755018
sS'NNPS'
p1595
F0.00081745937300187329
sS'JJS'
p1596
F0.0046268735554729351
sS'JJR'
p1597
F0.00264433857019778
sS'SYM'
p1598
F0.00026222532806501698
sS'UH'
p1599
F0.00026222532806501698
ssbs(S'.'
g137
tp1600
(imultinomial
Multinomial
p1601
(dp1602
g6
g7
(g8
tRp1603
sg10
F0
sg11
g7
(g8
tRp1604
S'PRP$'
p1605
F0.00091280069122972143
sS'VBG'
p1606
F0.00043117218580700375
sS'FW'
p1607
F0.00043117218580700375
sS'``'
p1608
F0.0030070842101259949
sS','
F0.0026387522554575833
sS"''"
p1609
F0.80119331063193711
sS'VBP'
p1610
F0.0010083473764929251
sS'WDT'
p1611
F0.00043117218580700375
sS'JJ'
p1612
F0.0048980009152498208
sS'WP'
p1613
F0.00043117218580700375
sS'VBZ'
p1614
F0.0033969493009058131
sS'DT'
p1615
F0.0022385090864053352
sS'#'
F0.00043117218580700375
sS'RP'
p1616
F0.00043117218580700375
sS'$'
F0.00043117218580700375
sS'NN'
p1617
F0.0097425488539799928
sS')'
F0.063575795759340012
sS'('
F0.014932461340928372
sS'VBD'
p1618
F0.0018369783496371042
sS'POS'
p1619
F0.00043117218580700375
sS'.'
F0.022747543618822575
sS'TO'
p1620
F0.00069802476450212653
sS'PRP'
p1621
F0.0023684388509691476
sS'RB'
p1622
F0.00064458882517408247
sS':'
F0.0069358027051960166
sS'NNS'
p1623
F0.002112058513058191
sS'NNP'
p1624
F0.030107049953067597
sS'VB'
p1625
F0.0063760189907097423
sS'WRB'
p1626
F0.00043117218580700375
sS'CC'
p1627
F0.0025588663668858827
sS'LS'
p1628
F0.00043117218580700375
sS'PDT'
p1629
F0.00043117218580700375
sS'RBS'
p1630
F0.00043117218580700375
sS'RBR'
p1631
F0.00043117218580700375
sS'VBN'
p1632
F0.00076120306357186133
sS'EX'
p1633
F0.00043117218580700375
sS'IN'
p1634
F0.0017975325273106818
sS'WP$'
p1635
F0.00043117218580700375
sS'CD'
p1636
F0.0026242353574153741
sS'MD'
p1637
F0.00043117218580700375
sS'NNPS'
p1638
F0.00043117218580700375
sS'JJS'
p1639
F0.00043117218580700375
sS'JJR'
p1640
F0.00097013741806575892
sS'SYM'
p1641
F0.00043117218580700375
sS'UH'
p1642
F0.0017246887432280152
ssbs(S'NN'
g2
tp1643
(imultinomial
Multinomial
p1644
(dp1645
g6
g7
(g8
tRp1646
sg10
F0
sg11
g7
(g8
tRp1647
S'PRP$'
p1648
F0.019148401268426238
sS'VBG'
p1649
F0.014071438522598236
sS'FW'
p1650
F0.00012422532638087314
sS'``'
p1651
F0.010604770997543801
sS','
F0.02228887584170074
sS"''"
p1652
F0.0013776261056762324
sS'VBP'
p1653
F0.014947507982632642
sS'WDT'
p1654
F0.00095223423093261455
sS'JJ'
p1655
F0.11948332398948663
sS'WP'
p1656
F0.0014796892719239744
sS'VBZ'
p1657
F0.031318715461934356
sS'DT'
p1658
F0.22354439665534431
sS'#'
F4.1287878595955883e-05
sS'RP'
p1659
F0.0017641581394606156
sS'$'
F0.0019594259649393206
sS'NN'
p1660
F0.11029862099172336
sS')'
F0.0001085231539051607
sS'('
F0.00091847627916563505
sS'VBD'
p1661
F0.032703123273155679
sS'POS'
p1662
F0.015953045871093297
sS'.'
F0.00033832024420593377
sS'TO'
p1663
F0.015029406838694902
sS'PRP'
p1664
F0.016502942186906292
sS'RB'
p1665
F0.030507434823983822
sS':'
F0.0054786549266469513
sS'NNS'
p1666
F0.033983259678817719
sS'NNP'
p1667
F0.062000544649862342
sS'VB'
p1668
F0.024065682987695555
sS'WRB'
p1669
F0.0013662139607453002
sS'CC'
p1670
F0.021536598094772718
sS'LS'
p1671
F0.00019957304172154821
sS'PDT'
p1672
F0.00051706715391318901
sS'RBS'
p1673
F0.00059387421129751972
sS'RBR'
p1674
F0.0011874600789416733
sS'VBN'
p1675
F0.016862477988045854
sS'EX'
p1676
F0.0019440527881901973
sS'IN'
p1677
F0.08950884147295482
sS'WP$'
p1678
F2.162326174878526e-05
sS'CD'
p1679
F0.037239191088729334
sS'MD'
p1680
F0.0066820034900649736
sS'NNPS'
p1681
F0.0015269045334858483
sS'JJS'
p1682
F0.004175181544192743
sS'JJR'
p1683
F0.0047934738039916184
sS'SYM'
p1684
F0.00073884491068040132
sS'UH'
p1685
F0.00011250503308974875
ssbs(S'FW'
g2
tp1686
(imultinomial
Multinomial
p1687
(dp1688
g6
g7
(g8
tRp1689
sg10
F0
sg11
g7
(g8
tRp1690
S'PRP$'
p1691
F0.016780408351278739
sS'VBG'
p1692
F0.012413506823489143
sS'FW'
p1693
F0.013640679502219142
sS'``'
p1694
F0.050892308673120404
sS','
F0.024855013649844094
sS"''"
p1695
F0.0084258924553481246
sS'VBP'
p1696
F0.014819972304185074
sS'WDT'
p1697
F0.0084258924553481246
sS'JJ'
p1698
F0.042029572258690889
sS'WP'
p1699
F0.017522672434131525
sS'VBZ'
p1700
F0.02106670626552816
sS'DT'
p1701
F0.17097955249020008
sS'#'
F0.0084258924553481246
sS'RP'
p1702
F0.0084258924553481246
sS'$'
F0.0084258924553481246
sS'NN'
p1703
F0.10593010733390808
sS')'
F0.0084258924553481246
sS'('
F0.0084258924553481246
sS'VBD'
p1704
F0.019286462050768519
sS'POS'
p1705
F0.0084258924553481246
sS'.'
F0.0084258924553481246
sS'TO'
p1706
F0.0084258924553481246
sS'PRP'
p1707
F0.0084258924553481246
sS'RB'
p1708
F0.0084258924553481246
sS':'
F0.011842710342429999
sS'NNS'
p1709
F0.038723307759798577
sS'NNP'
p1710
F0.061769485516338624
sS'VB'
p1711
F0.01037712364155075
sS'WRB'
p1712
F0.0084258924553481246
sS'CC'
p1713
F0.023165062931175755
sS'LS'
p1714
F0.0084258924553481246
sS'PDT'
p1715
F0.0084258924553481246
sS'RBS'
p1716
F0.0084258924553481246
sS'RBR'
p1717
F0.0084258924553481246
sS'VBN'
p1718
F0.0084258924553481246
sS'EX'
p1719
F0.0084258924553481246
sS'IN'
p1720
F0.059521380096712262
sS'WP$'
p1721
F0.0084258924553481246
sS'CD'
p1722
F0.012476904668235245
sS'MD'
p1723
F0.010704396790601933
sS'NNPS'
p1724
F0.0084258924553481246
sS'JJS'
p1725
F0.0084258924553481246
sS'JJR'
p1726
F0.0084258924553481246
sS'SYM'
p1727
F0.058981247187436886
sS'UH'
p1728
F0.0084258924553481246
ssbs(S'WRB'
g2
tp1729
(imultinomial
Multinomial
p1730
(dp1731
g6
g7
(g8
tRp1732
sg10
F0
sg11
g7
(g8
tRp1733
S'PRP$'
p1734
F0.0021491765366435924
sS'VBG'
p1735
F0.0071512048737936776
sS'FW'
p1736
F0.0016698579911204373
sS'``'
p1737
F0.073283802186280278
sS','
F0.038745571428803811
sS"''"
p1738
F0.0048309473372919421
sS'VBP'
p1739
F0.046902726595296686
sS'WDT'
p1740
F0.0031725768444703277
sS'JJ'
p1741
F0.039958145717286578
sS'WP'
p1742
F0.0035340736075844519
sS'VBZ'
p1743
F0.067545421477277309
sS'DT'
p1744
F0.056172561020739663
sS'#'
F0.0016698579911204373
sS'RP'
p1745
F0.003158811657177435
sS'$'
F0.0016698579911204373
sS'NN'
p1746
F0.085656859145675682
sS')'
F0.0016698579911204373
sS'('
F0.0071606601199899018
sS'VBD'
p1747
F0.032038119348232204
sS'POS'
p1748
F0.004566159190875288
sS'.'
F0.0016698579911204373
sS'TO'
p1749
F0.01205029181351084
sS'PRP'
p1750
F0.039017807757448703
sS'RB'
p1751
F0.086151932346126309
sS':'
F0.0068181685464876116
sS'NNS'
p1752
F0.0431307943959073
sS'NNP'
p1753
F0.030578645576357456
sS'VB'
p1754
F0.094220616242457506
sS'WRB'
p1755
F0.0035433526805868131
sS'CC'
p1756
F0.08029985275970912
sS'LS'
p1757
F0.0016698579911204373
sS'PDT'
p1758
F0.0029116423366387111
sS'RBS'
p1759
F0.0016698579911204373
sS'RBR'
p1760
F0.003410000715148547
sS'VBN'
p1761
F0.018646557032748076
sS'EX'
p1762
F0.0045957851422584097
sS'IN'
p1763
F0.047822929350658072
sS'WP$'
p1764
F0.0016698579911204373
sS'CD'
p1765
F0.0052347003201467764
sS'MD'
p1766
F0.014081419995387087
sS'NNPS'
p1767
F0.0022217621446841149
sS'JJS'
p1768
F0.0041497797186303229
sS'JJR'
p1769
F0.0083885641264852522
sS'SYM'
p1770
F0.0016698579911204373
sS'UH'
p1771
F0.0016698579911204373
ssbs(S'NNP'
g2
tp1772
(imultinomial
Multinomial
p1773
(dp1774
g6
g7
(g8
tRp1775
sg10
F0
sg11
g7
(g8
tRp1776
S'PRP$'
p1777
F0.0037860160542368816
sS'VBG'
p1778
F0.0084051837283296415
sS'FW'
p1779
F0.00034843812818478794
sS'``'
p1780
F0.0072298328287393812
sS','
F0.044842529089299497
sS"''"
p1781
F0.0064671263098139463
sS'VBP'
p1782
F0.0091316265959164589
sS'WDT'
p1783
F0.00075300313712899916
sS'JJ'
p1784
F0.033413707045230147
sS'WP'
p1785
F0.001504890367693556
sS'VBZ'
p1786
F0.025339364370019865
sS'DT'
p1787
F0.10302636783736248
sS'#'
F3.1011702123390405e-05
sS'RP'
p1788
F0.0017023658420172389
sS'$'
F0.0010952682475628313
sS'NN'
p1789
F0.063638354855446805
sS')'
F0.00092202747022436125
sS'('
F0.005468563302739613
sS'VBD'
p1790
F0.025388844592713407
sS'POS'
p1791
F0.0087428581360505398
sS'.'
F0.0020209246854378795
sS'TO'
p1792
F0.0118340638997643
sS'PRP'
p1793
F0.010576240270593267
sS'RB'
p1794
F0.021021297405562554
sS':'
F0.015608190434643893
sS'NNS'
p1795
F0.026801562476097922
sS'NNP'
p1796
F0.3454215328499462
sS'VB'
p1797
F0.015511269373450419
sS'WRB'
p1798
F0.0014220087874309089
sS'CC'
p1799
F0.035670475055217948
sS'LS'
p1800
F0.00013226491378715271
sS'PDT'
p1801
F0.00023271540774844244
sS'RBS'
p1802
F0.00027184936442236881
sS'RBR'
p1803
F0.00074972152227675219
sS'VBN'
p1804
F0.016860029481877748
sS'EX'
p1805
F0.00040487698981724204
sS'IN'
p1806
F0.117447803769061
sS'WP$'
p1807
F3.1011702123390405e-05
sS'CD'
p1808
F0.012119484948525589
sS'MD'
p1809
F0.0047565198493059197
sS'NNPS'
p1810
F0.0066108121721354862
sS'JJS'
p1811
F0.0011105735327899165
sS'JJR'
p1812
F0.0012369863785614305
sS'SYM'
p1813
F0.00070154200664574687
sS'UH'
p1814
F0.00020886308194279838
ssbs(S'$'
g137
tp1815
(imultinomial
Multinomial
p1816
(dp1817
g6
g7
(g8
tRp1818
sg10
F0
sg11
g7
(g8
tRp1819
S'PRP$'
p1820
F0.00050550517153155107
sS'VBG'
p1821
F0.0010781070185319705
sS'FW'
p1822
F0.0002576672403496383
sS'``'
p1823
F0.0002576672403496383
sS','
F0.011001290367151811
sS"''"
p1824
F0.00067166938876730986
sS'VBP'
p1825
F0.0002576672403496383
sS'WDT'
p1826
F0.00049495601672846807
sS'JJ'
p1827
F0.014778243394037329
sS'WP'
p1828
F0.0002576672403496383
sS'VBZ'
p1829
F0.0014847158185400697
sS'DT'
p1830
F0.015919094595491078
sS'#'
F0.0002576672403496383
sS'RP'
p1831
F0.00035969696920607863
sS'$'
F0.027134727435256502
sS'NN'
p1832
F0.034394739269393251
sS')'
F0.0026822220283845856
sS'('
F0.0002576672403496383
sS'VBD'
p1833
F0.0033092157389185443
sS'POS'
p1834
F0.00059981642244553979
sS'.'
F0.15499704778994455
sS'TO'
p1835
F0.0051868011421244437
sS'PRP'
p1836
F0.00084404931510253514
sS'RB'
p1837
F0.0067062404059599007
sS':'
F0.001585419336950705
sS'NNS'
p1838
F0.0080222266138056039
sS'NNP'
p1839
F0.0096611965053341551
sS'VB'
p1840
F0.0013349584592624905
sS'WRB'
p1841
F0.0002576672403496383
sS'CC'
p1842
F0.0035840318024593543
sS'LS'
p1843
F0.0002576672403496383
sS'PDT'
p1844
F0.0002576672403496383
sS'RBS'
p1845
F0.0002576672403496383
sS'RBR'
p1846
F0.00063869259238797911
sS'VBN'
p1847
F0.0061715315926386162
sS'EX'
p1848
F0.0002576672403496383
sS'IN'
p1849
F0.050875691935260044
sS'WP$'
p1850
F0.0002576672403496383
sS'CD'
p1851
F0.63039329276786071
sS'MD'
p1852
F0.00042025774657987892
sS'NNPS'
p1853
F0.0002576672403496383
sS'JJS'
p1854
F0.00043584887827196044
sS'JJR'
p1855
F0.00057040450772213511
sS'SYM'
p1856
F0.00055096760905645303
sS'UH'
p1857
F0.0002576672403496383
ssbs(S')'
g137
tp1858
(imultinomial
Multinomial
p1859
(dp1860
g6
g7
(g8
tRp1861
sg10
F0
sg11
g7
(g8
tRp1862
S'PRP$'
p1863
F0.0050413677389986485
sS'VBG'
p1864
F0.014707683783156938
sS'FW'
p1865
F0.0032963486373013837
sS'``'
p1866
F0.014546228999837169
sS','
F0.0052851847910340508
sS"''"
p1867
F0.012909978250046115
sS'VBP'
p1868
F0.011939796334741218
sS'WDT'
p1869
F0.0032963486373013837
sS'JJ'
p1870
F0.022242015583499974
sS'WP'
p1871
F0.01098705195228592
sS'VBZ'
p1872
F0.035901575099872324
sS'DT'
p1873
F0.018099868174561703
sS'#'
F0.0032963486373013837
sS'RP'
p1874
F0.0032963486373013837
sS'$'
F0.0032963486373013837
sS'NN'
p1875
F0.024541799683116525
sS')'
F0.0032963486373013837
sS'('
F0.0032963486373013837
sS'VBD'
p1876
F0.005509434739596317
sS'POS'
p1877
F0.0032963486373013837
sS'.'
F0.23594388270019229
sS'TO'
p1878
F0.0085430219118096361
sS'PRP'
p1879
F0.0070406404113025119
sS'RB'
p1880
F0.030752904435073697
sS':'
F0.25924980673340131
sS'NNS'
p1881
F0.023548538772657616
sS'NNP'
p1882
F0.10960274837677954
sS'VB'
p1883
F0.015004232690236223
sS'WRB'
p1884
F0.0032963486373013837
sS'CC'
p1885
F0.0062393533268622322
sS'LS'
p1886
F0.0032963486373013837
sS'PDT'
p1887
F0.0032963486373013837
sS'RBS'
p1888
F0.0032963486373013837
sS'RBR'
p1889
F0.0032963486373013837
sS'VBN'
p1890
F0.0032963486373013837
sS'EX'
p1891
F0.0032963486373013837
sS'IN'
p1892
F0.029342845584498251
sS'WP$'
p1893
F0.0032963486373013837
sS'CD'
p1894
F0.0080362845457622716
sS'MD'
p1895
F0.0047795541765829931
sS'NNPS'
p1896
F0.0032963486373013837
sS'JJS'
p1897
F0.0032963486373013837
sS'JJR'
p1898
F0.0098227032725236099
sS'SYM'
p1899
F0.0032963486373013837
sS'UH'
p1900
F0.0077508738228437906
ssbs(S'$'
g2
tp1901
(imultinomial
Multinomial
p1902
(dp1903
g6
g7
(g8
tRp1904
sg10
F0
sg11
g7
(g8
tRp1905
S'PRP$'
p1906
F0.0017968216945547773
sS'VBG'
p1907
F0.0096684032772448025
sS'FW'
p1908
F0.00043008325345780482
sS'``'
p1909
F0.00069451178199033282
sS','
F0.021121131291513384
sS"''"
p1910
F0.00024254023576572375
sS'VBP'
p1911
F0.0066409993135323172
sS'WDT'
p1912
F0.00093707597071557714
sS'JJ'
p1913
F0.026090337774303113
sS'WP'
p1914
F0.00024254023576572375
sS'VBZ'
p1915
F0.024607366509932317
sS'DT'
p1916
F0.057865326380671156
sS'#'
F0.00024254023576572375
sS'RP'
p1917
F0.0010651281378697213
sS'$'
F0.024622283616089306
sS'NN'
p1918
F0.13469697834877531
sS')'
F0.00024254023576572375
sS'('
F0.0032989392532348301
sS'VBD'
p1919
F0.096852775666398341
sS'POS'
p1920
F0.0039677549179782052
sS'.'
F0.00024254023576572375
sS'TO'
p1921
F0.11707751132008137
sS'PRP'
p1922
F0.0051954999361497117
sS'RB'
p1923
F0.029630662249496651
sS':'
F0.011855429973272054
sS'NNS'
p1924
F0.046134398017251679
sS'NNP'
p1925
F0.036134902240152485
sS'VB'
p1926
F0.011153232591462333
sS'WRB'
p1927
F0.00024254023576572375
sS'CC'
p1928
F0.0043607223350771432
sS'LS'
p1929
F0.00024254023576572375
sS'PDT'
p1930
F0.00024254023576572375
sS'RBS'
p1931
F0.00024254023576572375
sS'RBR'
p1932
F0.00061739971399182468
sS'VBN'
p1933
F0.017887918873833512
sS'EX'
p1934
F0.00044716267985181983
sS'IN'
p1935
F0.17872317679448227
sS'WP$'
p1936
F0.00024254023576572375
sS'CD'
p1937
F0.11061665422324712
sS'MD'
p1938
F0.0048153066451773804
sS'NNPS'
p1939
F0.0016405445720438121
sS'JJS'
p1940
F0.0024230821110263821
sS'JJR'
p1941
F0.0027480104722314232
sS'SYM'
p1942
F0.0015145254694866387
sS'UH'
p1943
F0.00024254023576572375
ssbs(S'NNPS'
g137
tp1944
(imultinomial
Multinomial
p1945
(dp1946
g6
g7
(g8
tRp1947
sg10
F0
sg11
g7
(g8
tRp1948
S'PRP$'
p1949
F0.0046610329221234547
sS'VBG'
p1950
F0.011253877412809582
sS'FW'
p1951
F0.00066783099423833609
sS'``'
p1952
F0.0010026393135423141
sS','
F0.024492024837997447
sS"''"
p1953
F0.0081434733203581359
sS'VBP'
p1954
F0.055096165921348694
sS'WDT'
p1955
F0.0014713161424719564
sS'JJ'
p1956
F0.036160614211401196
sS'WP'
p1957
F0.0020819749090706355
sS'VBZ'
p1958
F0.028103586261588005
sS'DT'
p1959
F0.02693128129014611
sS'#'
F0.00066783099423833609
sS'RP'
p1960
F0.0017878722103493447
sS'$'
F0.0042081872495715522
sS'NN'
p1961
F0.062202278826082133
sS')'
F0.0012382119670901095
sS'('
F0.00099116466222344568
sS'VBD'
p1962
F0.096046096629074762
sS'POS'
p1963
F0.012970652353986881
sS'.'
F0.15572505627828928
sS'TO'
p1964
F0.01481523716266212
sS'PRP'
p1965
F0.0089966744636115446
sS'RB'
p1966
F0.03552680421757106
sS':'
F0.045614425291508449
sS'NNS'
p1967
F0.02673924453050221
sS'NNP'
p1968
F0.14084640610327573
sS'VB'
p1969
F0.016498921270757146
sS'WRB'
p1970
F0.00081474445598243253
sS'CC'
p1971
F0.033639269609481603
sS'LS'
p1972
F0.00066783099423833609
sS'PDT'
p1973
F0.00066783099423833609
sS'RBS'
p1974
F0.0010539667563254785
sS'RBR'
p1975
F0.0028486176864364471
sS'VBN'
p1976
F0.015738947100626208
sS'EX'
p1977
F0.00066783099423833609
sS'IN'
p1978
F0.042284097043608748
sS'WP$'
p1979
F0.00066783099423833609
sS'CD'
p1980
F0.036191115244841927
sS'MD'
p1981
F0.011799408967819176
sS'NNPS'
p1982
F0.023343007899651227
sS'JJS'
p1983
F0.0012792461981033746
sS'JJR'
p1984
F0.0020597113238040132
sS'SYM'
p1985
F0.00066783099423833609
sS'UH'
p1986
F0.00066783099423833609
ssbs(S'WDT'
g137
tp1987
(imultinomial
Multinomial
p1988
(dp1989
g6
g7
(g8
tRp1990
sg10
F0
sg11
g7
(g8
tRp1991
S'PRP$'
p1992
F0.0036229866228311212
sS'VBG'
p1993
F0.016773195477098317
sS'FW'
p1994
F0.0011889699825503514
sS'``'
p1995
F0.0025743732787830162
sS','
F0.010094150960529484
sS"''"
p1996
F0.01251467703568589
sS'VBP'
p1997
F0.075598471805806963
sS'WDT'
p1998
F0.0030656102437232012
sS'JJ'
p1999
F0.047136387025856485
sS'WP'
p2000
F0.0031355148351295465
sS'VBZ'
p2001
F0.12890028683078064
sS'DT'
p2002
F0.051994118410291938
sS'#'
F0.0011889699825503514
sS'RP'
p2003
F0.0023471960488077328
sS'$'
F0.0047335874800508437
sS'NN'
p2004
F0.070726086722389392
sS')'
F0.0011889699825503514
sS'('
F0.0011889699825503514
sS'VBD'
p2005
F0.094134435606776701
sS'POS'
p2006
F0.0043161477849430387
sS'.'
F0.09844633796738822
sS'TO'
p2007
F0.015144214617493398
sS'PRP'
p2008
F0.025986494748445912
sS'RB'
p2009
F0.046449437550861998
sS':'
F0.0024739873436510893
sS'NNS'
p2010
F0.044649662437139949
sS'NNP'
p2011
F0.027712334781831743
sS'VB'
p2012
F0.033578776003393283
sS'WRB'
p2013
F0.0022742984770618866
sS'CC'
p2014
F0.0090483284781856139
sS'LS'
p2015
F0.0011889699825503514
sS'PDT'
p2016
F0.0011889699825503514
sS'RBS'
p2017
F0.0021925350694483982
sS'RBR'
p2018
F0.0020894173970903767
sS'VBN'
p2019
F0.02642522833701583
sS'EX'
p2020
F0.0011889699825503514
sS'IN'
p2021
F0.050520473023702585
sS'WP$'
p2022
F0.0011889699825503514
sS'CD'
p2023
F0.020953807904914828
sS'MD'
p2024
F0.038075878553207057
sS'NNPS'
p2025
F0.0011889699825503514
sS'JJS'
p2026
F0.0044872346693011593
sS'JJR'
p2027
F0.0047456566623285826
sS'SYM'
p2028
F0.0011889699825503514
sS'UH'
p2029
F0.0011889699825503514
ssbs(S'FW'
g137
tp2030
(imultinomial
Multinomial
p2031
(dp2032
g6
g7
(g8
tRp2033
sg10
F0
sg11
g7
(g8
tRp2034
S'PRP$'
p2035
F0.024595335406238455
sS'VBG'
p2036
F0.0071373303998821646
sS'FW'
p2037
F0.012025015455551687
sS'``'
p2038
F0.0071373303998821646
sS','
F0.02301731067984664
sS"''"
p2039
F0.035447831743261993
sS'VBP'
p2040
F0.0071373303998821646
sS'WDT'
p2041
F0.0071373303998821646
sS'JJ'
p2042
F0.043811155105179411
sS'WP'
p2043
F0.0071373303998821646
sS'VBZ'
p2044
F0.098350188524054721
sS'DT'
p2045
F0.011259654744147304
sS'#'
F0.0071373303998821646
sS'RP'
p2046
F0.015966367342524112
sS'$'
F0.01246195267650059
sS'NN'
p2047
F0.059682262414435833
sS')'
F0.011151864189273874
sS'('
F0.012327074318583389
sS'VBD'
p2048
F0.013892916565636015
sS'POS'
p2049
F0.026221518022850811
sS'.'
F0.2276873173881015
sS'TO'
p2050
F0.014048477794134257
sS'PRP'
p2051
F0.0071373303998821646
sS'RB'
p2052
F0.018049197912678092
sS':'
F0.0099756431623545909
sS'NNS'
p2053
F0.024136850516983201
sS'NNP'
p2054
F0.073023460013272493
sS'VB'
p2055
F0.0071373303998821646
sS'WRB'
p2056
F0.0071373303998821646
sS'CC'
p2057
F0.0071373303998821646
sS'LS'
p2058
F0.0071373303998821646
sS'PDT'
p2059
F0.0071373303998821646
sS'RBS'
p2060
F0.0071373303998821646
sS'RBR'
p2061
F0.0071373303998821646
sS'VBN'
p2062
F0.032184744888934767
sS'EX'
p2063
F0.0071373303998821646
sS'IN'
p2064
F0.027447286507237836
sS'WP$'
p2065
F0.0071373303998821646
sS'CD'
p2066
F0.01621530583081068
sS'MD'
p2067
F0.0071373303998821646
sS'NNPS'
p2068
F0.0071373303998821646
sS'JJS'
p2069
F0.0071373303998821646
sS'JJR'
p2070
F0.0071373303998821646
sS'SYM'
p2071
F0.0071373303998821646
sS'UH'
p2072
F0.0071373303998821646
ssbs(S'CD'
g137
tp2073
(imultinomial
Multinomial
p2074
(dp2075
g6
g7
(g8
tRp2076
sg10
F0
sg11
g7
(g8
tRp2077
S'PRP$'
p2078
F0.0013589475712033447
sS'VBG'
p2079
F0.0032362646597911921
sS'FW'
p2080
F7.2696743483429779e-05
sS'``'
p2081
F0.00026656895465592063
sS','
F0.033901571468758218
sS"''"
p2082
F0.0018942045652836342
sS'VBP'
p2083
F0.004148311720100494
sS'WDT'
p2084
F0.00052911565933835554
sS'JJ'
p2085
F0.03206531335232625
sS'WP'
p2086
F0.00028601246692293829
sS'VBZ'
p2087
F0.0047926667398613043
sS'DT'
p2088
F0.019556289253608618
sS'#'
F0.0001691587910481754
sS'RP'
p2089
F0.00039482247540320706
sS'$'
F0.023082723548203562
sS'NN'
p2090
F0.12056894184636391
sS')'
F0.0018236813169637122
sS'('
F0.00047208472045644879
sS'VBD'
p2091
F0.01282091906374928
sS'POS'
p2092
F0.0013299447433701046
sS'.'
F0.26410378541578933
sS'TO'
p2093
F0.0395513821522551
sS'PRP'
p2094
F0.0018265077645334834
sS'RB'
p2095
F0.015010250924528788
sS':'
F0.0083101859063128367
sS'NNS'
p2096
F0.099180842054306856
sS'NNP'
p2097
F0.019790170452352204
sS'VB'
p2098
F0.0036315851080926448
sS'WRB'
p2099
F0.00015487182510515599
sS'CC'
p2100
F0.0083798896213812934
sS'LS'
p2101
F5.013727273809697e-05
sS'PDT'
p2102
F0.0001198959878427894
sS'RBS'
p2103
F9.3947065108638289e-05
sS'RBR'
p2104
F0.0010271152781482996
sS'VBN'
p2105
F0.0081935832584836641
sS'EX'
p2106
F0.00018291095351384909
sS'IN'
p2107
F0.079651932539183734
sS'WP$'
p2108
F5.013727273809697e-05
sS'CD'
p2109
F0.1808344553754557
sS'MD'
p2110
F0.0019625729789730898
sS'NNPS'
p2111
F0.00070246267008228984
sS'JJS'
p2112
F0.00065532735214958362
sS'JJR'
p2113
F0.0033338243829784892
sS'SYM'
p2114
F0.00038184945431576775
sS'UH'
p2115
F5.013727273809697e-05
ssbs(S'CC'
g2
tp2116
(imultinomial
Multinomial
p2117
(dp2118
g6
g7
(g8
tRp2119
sg10
F0
sg11
g7
(g8
tRp2120
S'PRP$'
p2121
F0.0057863941355451613
sS'VBG'
p2122
F0.010753605333512582
sS'FW'
p2123
F0.00015157727244858939
sS'``'
p2124
F0.028526872509010683
sS','
F0.062917510064819923
sS"''"
p2125
F0.0022039170996089974
sS'VBP'
p2126
F0.017470708160889459
sS'WDT'
p2127
F0.0011754642970913216
sS'JJ'
p2128
F0.076913232537449083
sS'WP'
p2129
F0.0014268743762142222
sS'VBZ'
p2130
F0.033025071682188725
sS'DT'
p2131
F0.06037349593168246
sS'#'
F0.00015157727244858939
sS'RP'
p2132
F0.0026497790775439063
sS'$'
F0.0021541722583347613
sS'NN'
p2133
F0.1557963732053767
sS')'
F0.00030034161124839617
sS'('
F0.0014655783698429997
sS'VBD'
p2134
F0.027943626305214513
sS'POS'
p2135
F0.0093104635528687193
sS'.'
F0.00096398968457856728
sS'TO'
p2136
F0.01056666594334294
sS'PRP'
p2137
F0.023257434162156192
sS'RB'
p2138
F0.035787442291818322
sS':'
F0.0074768414861351535
sS'NNS'
p2139
F0.1144540351941747
sS'NNP'
p2140
F0.14249072522043696
sS'VB'
p2141
F0.023962111318157335
sS'WRB'
p2142
F0.00057713085558634756
sS'CC'
p2143
F0.0097004150494994865
sS'LS'
p2144
F0.00054658148193527649
sS'PDT'
p2145
F0.00034045424454874331
sS'RBS'
p2146
F0.00038416807483262648
sS'RBR'
p2147
F0.0010452656094226544
sS'VBN'
p2148
F0.024338019339659553
sS'EX'
p2149
F0.0011273422265561152
sS'IN'
p2150
F0.054468464762328014
sS'WP$'
p2151
F0.00015157727244858939
sS'CD'
p2152
F0.025708500585370258
sS'MD'
p2153
F0.0072907290302194365
sS'NNPS'
p2154
F0.0086328083109825249
sS'JJS'
p2155
F0.0013334391043837112
sS'JJR'
p2156
F0.0043879085635317051
sS'SYM'
p2157
F0.00035973786210628203
sS'UH'
p2158
F0.00015157727244858939
ssbs(S'LS'
g137
tp2159
(imultinomial
Multinomial
p2160
(dp2161
g6
g7
(g8
tRp2162
sg10
F0
sg11
g7
(g8
tRp2163
S'PRP$'
p2164
F0.011901181302324275
sS'VBG'
p2165
F0.0082453972998000492
sS'FW'
p2166
F0.0068214087952346483
sS'``'
p2167
F0.0068214087952346483
sS','
F0.077165646049096939
sS"''"
p2168
F0.0068214087952346483
sS'VBP'
p2169
F0.032033469599232624
sS'WDT'
p2170
F0.0068214087952346483
sS'JJ'
p2171
F0.056908399237306319
sS'WP'
p2172
F0.0068214087952346483
sS'VBZ'
p2173
F0.022228044724189024
sS'DT'
p2174
F0.019710114760357663
sS'#'
F0.0068214087952346483
sS'RP'
p2175
F0.0068214087952346483
sS'$'
F0.0068214087952346483
sS'NN'
p2176
F0.06102842627262519
sS')'
F0.022485282345454077
sS'('
F0.0068214087952346483
sS'VBD'
p2177
F0.0068214087952346483
sS'POS'
p2178
F0.0068214087952346483
sS'.'
F0.16598123490703967
sS'TO'
p2179
F0.0068214087952346483
sS'PRP'
p2180
F0.038676874276920382
sS'RB'
p2181
F0.0094040335193919921
sS':'
F0.097334948095937471
sS'NNS'
p2182
F0.032776911158476821
sS'NNP'
p2183
F0.022138063544227655
sS'VB'
p2184
F0.059385412711608541
sS'WRB'
p2185
F0.0068214087952346483
sS'CC'
p2186
F0.018579311952940072
sS'LS'
p2187
F0.0068214087952346483
sS'PDT'
p2188
F0.0068214087952346483
sS'RBS'
p2189
F0.0068214087952346483
sS'RBR'
p2190
F0.0068214087952346483
sS'VBN'
p2191
F0.030849069500285008
sS'EX'
p2192
F0.0068214087952346483
sS'IN'
p2193
F0.020502171891777825
sS'WP$'
p2194
F0.0068214087952346483
sS'CD'
p2195
F0.013634401206103472
sS'MD'
p2196
F0.0068214087952346483
sS'NNPS'
p2197
F0.0068214087952346483
sS'JJS'
p2198
F0.0068214087952346483
sS'JJR'
p2199
F0.015317794559273732
sS'SYM'
p2200
F0.0068214087952346483
sS'UH'
p2201
F0.0068214087952346483
ssbs(S'DT'
g2
tp2202
(imultinomial
Multinomial
p2203
(dp2204
g6
g7
(g8
tRp2205
sg10
F0
sg11
g7
(g8
tRp2206
S'PRP$'
p2207
F0.0036354028405309511
sS'VBG'
p2208
F0.02200803093775305
sS'FW'
p2209
F5.0570155930049023e-05
sS'``'
p2210
F0.024024253203832228
sS','
F0.04244941070479611
sS"''"
p2211
F0.0021975135028291636
sS'VBP'
p2212
F0.031589485575853775
sS'WDT'
p2213
F0.0016505671851455362
sS'JJ'
p2214
F0.029989155018255505
sS'WP'
p2215
F0.0027798170834844628
sS'VBZ'
p2216
F0.06879556757729946
sS'DT'
p2217
F0.053617312164782646
sS'#'
F4.5436750241027313e-05
sS'RP'
p2218
F0.0046362837802883397
sS'$'
F0.0019727559347915455
sS'NN'
p2219
F0.083547285709125438
sS')'
F0.00018289615019848615
sS'('
F0.0019495275176032866
sS'VBD'
p2220
F0.062298521804530327
sS'POS'
p2221
F0.0026604838738991344
sS'.'
F0.00018296615963118119
sS'TO'
p2222
F0.026201478613051121
sS'PRP'
p2223
F0.032075001014025321
sS'RB'
p2224
F0.056372512863030085
sS':'
F0.0024459803802065021
sS'NNS'
p2225
F0.045827458629733232
sS'NNP'
p2226
F0.055803409671370235
sS'VB'
p2227
F0.054068719049597085
sS'WRB'
p2228
F0.0038412644724315041
sS'CC'
p2229
F0.034108667373413108
sS'LS'
p2230
F0.00012785057850672339
sS'PDT'
p2231
F0.0041362294921723029
sS'RBS'
p2232
F0.0005376596640379492
sS'RBR'
p2233
F0.0021496307985075938
sS'VBN'
p2234
F0.025381454773651734
sS'EX'
p2235
F0.0037736651699536035
sS'IN'
p2236
F0.18023993882845102
sS'WP$'
p2237
F4.8737385372795766e-05
sS'CD'
p2238
F0.013235416052176277
sS'MD'
p2239
F0.012594158902748854
sS'NNPS'
p2240
F0.0015124986387989058
sS'JJS'
p2241
F0.0023542366199059942
sS'JJR'
p2242
F0.0024749014668436885
sS'SYM'
p2243
F0.00010686710699681307
sS'UH'
p2244
F0.00031901882421619439
ssbs(S'WP'
g137
tp2245
(imultinomial
Multinomial
p2246
(dp2247
g6
g7
(g8
tRp2248
sg10
F0
sg11
g7
(g8
tRp2249
S'PRP$'
p2250
F0.01156143322529816
sS'VBG'
p2251
F0.016787565528925873
sS'FW'
p2252
F0.0017659906201933312
sS'``'
p2253
F0.0038173325498746425
sS','
F0.012815229024917645
sS"''"
p2254
F0.011619825507651069
sS'VBP'
p2255
F0.064839166667171641
sS'WDT'
p2256
F0.0028304272803438731
sS'JJ'
p2257
F0.027412168455024498
sS'WP'
p2258
F0.0016268262840321813
sS'VBZ'
p2259
F0.13166765700793587
sS'DT'
p2260
F0.06050738671108899
sS'#'
F0.0008491882216503957
sS'RP'
p2261
F0.0052970287348806456
sS'$'
F0.0008491882216503957
sS'NN'
p2262
F0.06949380890680236
sS')'
F0.0015919184446682333
sS'('
F0.0008491882216503957
sS'VBD'
p2263
F0.077292613865795251
sS'POS'
p2264
F0.003148146237623333
sS'.'
F0.10129771628314381
sS'TO'
p2265
F0.025028663137779548
sS'PRP'
p2266
F0.081621594161462058
sS'RB'
p2267
F0.041579985099619972
sS':'
F0.0069637973967431929
sS'NNS'
p2268
F0.037110182301859265
sS'NNP'
p2269
F0.035319151952203205
sS'VB'
p2270
F0.034932446936805459
sS'WRB'
p2271
F0.0016657359939310978
sS'CC'
p2272
F0.0070865945185019296
sS'LS'
p2273
F0.0008491882216503957
sS'PDT'
p2274
F0.0023829629981011687
sS'RBS'
p2275
F0.0008491882216503957
sS'RBR'
p2276
F0.0027416654940478975
sS'VBN'
p2277
F0.013267730551226636
sS'EX'
p2278
F0.0008491882216503957
sS'IN'
p2279
F0.050591225687855387
sS'WP$'
p2280
F0.0008491882216503957
sS'CD'
p2281
F0.0033271404848983104
sS'MD'
p2282
F0.03295783823591502
sS'NNPS'
p2283
F0.0024166118026218292
sS'JJS'
p2284
F0.0024825988559468363
sS'JJR'
p2285
F0.0055091390602563578
sS'SYM'
p2286
F0.0008491882216503957
sS'UH'
p2287
F0.0008491882216503957
ssbs(S'``'
g137
tp2288
(imultinomial
Multinomial
p2289
(dp2290
g6
g7
(g8
tRp2291
sg10
F0
sg11
g7
(g8
tRp2292
S'PRP$'
p2293
F0.010883046139329335
sS'VBG'
p2294
F0.014571766256232518
sS'FW'
p2295
F0.0010211575832933615
sS'``'
p2296
F0.0010238087578845921
sS','
F0.020398453759663208
sS"''"
p2297
F0.049997928001988212
sS'VBP'
p2298
F0.044945278612363609
sS'WDT'
p2299
F0.0010603869760907286
sS'JJ'
p2300
F0.053088447369773258
sS'WP'
p2301
F0.0063701197907988436
sS'VBZ'
p2302
F0.048223461557937282
sS'DT'
p2303
F0.096170968678371008
sS'#'
F0.00017660890029038345
sS'RP'
p2304
F0.0021227675559127883
sS'$'
F0.0004173854209103144
sS'NN'
p2305
F0.092193785254156932
sS')'
F0.00078971552952536645
sS'('
F0.00084888721248420557
sS'VBD'
p2306
F0.026921068345504787
sS'POS'
p2307
F0.0019604141216725849
sS'.'
F0.062683690293518293
sS'TO'
p2308
F0.012245924050450642
sS'PRP'
p2309
F0.16437526461899632
sS'RB'
p2310
F0.051331589767350805
sS':'
F0.0013722509982498866
sS'NNS'
p2311
F0.039699289207862108
sS'NNP'
p2312
F0.032599587883265342
sS'VB'
p2313
F0.034322324192158686
sS'WRB'
p2314
F0.0057361570589542802
sS'CC'
p2315
F0.025134478341522538
sS'LS'
p2316
F0.00017660890029038345
sS'PDT'
p2317
F0.0002790220303831769
sS'RBS'
p2318
F0.00042751646111068324
sS'RBR'
p2319
F0.001301085617311365
sS'VBN'
p2320
F0.010253339512362611
sS'EX'
p2321
F0.0097832123162325379
sS'IN'
p2322
F0.040809056233144188
sS'WP$'
p2323
F0.00017660890029038345
sS'CD'
p2324
F0.0072105781288081938
sS'MD'
p2325
F0.016691169152901121
sS'NNPS'
p2326
F0.00089969082137242599
sS'JJS'
p2327
F0.0022976043066667237
sS'JJR'
p2328
F0.0027698184657231821
sS'SYM'
p2329
F0.00017660890029038345
sS'UH'
p2330
F0.0040620680166005988
ssbs(S':'
g137
tp2331
(imultinomial
Multinomial
p2332
(dp2333
g6
g7
(g8
tRp2334
sg10
F0
sg11
g7
(g8
tRp2335
S'PRP$'
p2336
F0.0017262163101708725
sS'VBG'
p2337
F0.0044208348622541346
sS'FW'
p2338
F0.00055357901124496146
sS'``'
p2339
F0.022274143305686597
sS','
F0.018468492971964762
sS"''"
p2340
F0.0081505231332244105
sS'VBP'
p2341
F0.010743825078292257
sS'WDT'
p2342
F0.0014393171303739016
sS'JJ'
p2343
F0.044424498500638156
sS'WP'
p2344
F0.00040705438436580883
sS'VBZ'
p2345
F0.017830162394113214
sS'DT'
p2346
F0.029108354279636345
sS'#'
F0.00040705438436580883
sS'RP'
p2347
F0.001636394281173857
sS'$'
F0.019200856985426205
sS'NN'
p2348
F0.13424837247565355
sS')'
F0.0087722984071849468
sS'('
F0.0032036112235202226
sS'VBD'
p2349
F0.010265070833583804
sS'POS'
p2350
F0.002643026047320422
sS'.'
F0.14455487562071886
sS'TO'
p2351
F0.007815406427108618
sS'PRP'
p2352
F0.020513391486181764
sS'RB'
p2353
F0.023149430763975656
sS':'
F0.009894379664483019
sS'NNS'
p2354
F0.056172687307800916
sS'NNP'
p2355
F0.17529561401577165
sS'VB'
p2356
F0.01092532294910323
sS'WRB'
p2357
F0.0015273839130091854
sS'CC'
p2358
F0.020040697987610458
sS'LS'
p2359
F0.00040705438436580883
sS'PDT'
p2360
F0.00061606563361227544
sS'RBS'
p2361
F0.00051158683136495438
sS'RBR'
p2362
F0.00048285138476390749
sS'VBN'
p2363
F0.012544951471723574
sS'EX'
p2364
F0.00040705438436580883
sS'IN'
p2365
F0.031772938246175296
sS'WP$'
p2366
F0.00040705438436580883
sS'CD'
p2367
F0.12509483842550351
sS'MD'
p2368
F0.0030353702077315975
sS'NNPS'
p2369
F0.0097818700263678279
sS'JJS'
p2370
F0.0014039453894013646
sS'JJR'
p2371
F0.0015493434759955827
sS'SYM'
p2372
F0.0017651452339390733
sS'UH'
p2373
F0.00040705438436580883
ssbs(S'VBN'
g137
tp2374
(imultinomial
Multinomial
p2375
(dp2376
g6
g7
(g8
tRp2377
sg10
F0
sg11
g7
(g8
tRp2378
S'PRP$'
p2379
F0.0059864990979453447
sS'VBG'
p2380
F0.013642641889664591
sS'FW'
p2381
F9.3098391466078705e-05
sS'``'
p2382
F0.0018327079948509269
sS','
F0.020759861920890358
sS"''"
p2383
F0.0087202448083512959
sS'VBP'
p2384
F0.0038296889032575811
sS'WDT'
p2385
F0.00047027697405922742
sS'JJ'
p2386
F0.057463594203039405
sS'WP'
p2387
F0.000785555747182476
sS'VBZ'
p2388
F0.0044900822247166744
sS'DT'
p2389
F0.070667800262191577
sS'#'
F9.3098391466078705e-05
sS'RP'
p2390
F0.0074710298837515291
sS'$'
F0.006660485290731581
sS'NN'
p2391
F0.10309005251986379
sS')'
F0.0013060299908449048
sS'('
F0.0001531971183514581
sS'VBD'
p2392
F0.0070609660524174169
sS'POS'
p2393
F0.0040266675952793773
sS'.'
F0.21404726247193404
sS'TO'
p2394
F0.044190129164289216
sS'PRP'
p2395
F0.0090860122691385145
sS'RB'
p2396
F0.037501392676049967
sS':'
F0.0028343438644481784
sS'NNS'
p2397
F0.050827416693498523
sS'NNP'
p2398
F0.051417097994459475
sS'VB'
p2399
F0.018914230435459232
sS'WRB'
p2400
F0.001020572597373515
sS'CC'
p2401
F0.014416398213209147
sS'LS'
p2402
F9.3098391466078705e-05
sS'PDT'
p2403
F0.00025119521400134232
sS'RBS'
p2404
F0.00018903495811687783
sS'RBR'
p2405
F0.0023313944361393738
sS'VBN'
p2406
F0.024229210533546128
sS'EX'
p2407
F0.00034984202380304499
sS'IN'
p2408
F0.17211934741694859
sS'WP$'
p2409
F9.3098391466078705e-05
sS'CD'
p2410
F0.029101824716271811
sS'MD'
p2411
F0.0033440887539673801
sS'NNPS'
p2412
F0.0012697107637940402
sS'JJS'
p2413
F0.00094549633948163203
sS'JJR'
p2414
F0.0025728839062459127
sS'SYM'
p2415
F0.00015824012310415101
sS'UH'
p2416
F9.3098391466078705e-05
ssbs(S'WP$'
g137
tp2417
(imultinomial
Multinomial
p2418
(dp2419
g6
g7
(g8
tRp2420
sg10
F0
sg11
g7
(g8
tRp2421
S'PRP$'
p2422
F0.018284839294341583
sS'VBG'
p2423
F0.018284839294341583
sS'FW'
p2424
F0.018284839294341583
sS'``'
p2425
F0.018284839294341583
sS','
F0.018284839294341583
sS"''"
p2426
F0.018284839294341583
sS'VBP'
p2427
F0.053688288902710699
sS'WDT'
p2428
F0.018284839294341583
sS'JJ'
p2429
F0.018284839294341583
sS'WP'
p2430
F0.018284839294341583
sS'VBZ'
p2431
F0.018284839294341583
sS'DT'
p2432
F0.027812065629535018
sS'#'
F0.018284839294341583
sS'RP'
p2433
F0.018284839294341583
sS'$'
F0.018284839294341583
sS'NN'
p2434
F0.026682266253791172
sS')'
F0.018284839294341583
sS'('
F0.018284839294341583
sS'VBD'
p2435
F0.018284839294341583
sS'POS'
p2436
F0.018284839294341583
sS'.'
F0.038027841053027873
sS'TO'
p2437
F0.018284839294341583
sS'PRP'
p2438
F0.018284839294341583
sS'RB'
p2439
F0.028629652585862492
sS':'
F0.018284839294341583
sS'NNS'
p2440
F0.087462364236989082
sS'NNP'
p2441
F0.018284839294341583
sS'VB'
p2442
F0.018284839294341583
sS'WRB'
p2443
F0.018284839294341583
sS'CC'
p2444
F0.018284839294341583
sS'LS'
p2445
F0.018284839294341583
sS'PDT'
p2446
F0.018284839294341583
sS'RBS'
p2447
F0.018284839294341583
sS'RBR'
p2448
F0.018284839294341583
sS'VBN'
p2449
F0.030806402786168655
sS'EX'
p2450
F0.018284839294341583
sS'IN'
p2451
F0.03035206466127709
sS'WP$'
p2452
F0.018284839294341583
sS'CD'
p2453
F0.018284839294341583
sS'MD'
p2454
F0.018284839294341583
sS'NNPS'
p2455
F0.018284839294341583
sS'JJS'
p2456
F0.018284839294341583
sS'JJR'
p2457
F0.018284839294341583
sS'SYM'
p2458
F0.018284839294341583
sS'UH'
p2459
F0.018284839294341583
ssbs(S'RBS'
g2
tp2460
(imultinomial
Multinomial
p2461
(dp2462
g6
g7
(g8
tRp2463
sg10
F0
sg11
g7
(g8
tRp2464
S'PRP$'
p2465
F0.018228182579233244
sS'VBG'
p2466
F0.0049113167703903112
sS'FW'
p2467
F0.0034830569262678311
sS'``'
p2468
F0.010735515307786584
sS','
F0.036462094335596225
sS"''"
p2469
F0.0034830569262678311
sS'VBP'
p2470
F0.03608186429188693
sS'WDT'
p2471
F0.0079775394619085328
sS'JJ'
p2472
F0.018416194945486557
sS'WP'
p2473
F0.0034830569262678311
sS'VBZ'
p2474
F0.048117717074177439
sS'DT'
p2475
F0.26301487950264729
sS'#'
F0.0034830569262678311
sS'RP'
p2476
F0.0050864471543656305
sS'$'
F0.0034830569262678311
sS'NN'
p2477
F0.043659385123175111
sS')'
F0.0034830569262678311
sS'('
F0.0034830569262678311
sS'VBD'
p2478
F0.060323933500370096
sS'POS'
p2479
F0.02029471922224195
sS'.'
F0.0034830569262678311
sS'TO'
p2480
F0.0095293704641823841
sS'PRP'
p2481
F0.031777679088149324
sS'RB'
p2482
F0.04806021153729309
sS':'
F0.0043319813083471104
sS'NNS'
p2483
F0.063091598173220673
sS'NNP'
p2484
F0.045788320231971505
sS'VB'
p2485
F0.026683488213473404
sS'WRB'
p2486
F0.0034830569262678311
sS'CC'
p2487
F0.031586141155430458
sS'LS'
p2488
F0.0034830569262678311
sS'PDT'
p2489
F0.0050384392760267783
sS'RBS'
p2490
F0.0034830569262678311
sS'RBR'
p2491
F0.0034830569262678311
sS'VBN'
p2492
F0.0067211596636793077
sS'EX'
p2493
F0.0034830569262678311
sS'IN'
p2494
F0.066856964465948479
sS'WP$'
p2495
F0.0034830569262678311
sS'CD'
p2496
F0.0067059389406689401
sS'MD'
p2497
F0.00689932672994215
sS'NNPS'
p2498
F0.0056915169338651863
sS'JJS'
p2499
F0.0050864471543656305
sS'JJR'
p2500
F0.0071127165738848553
sS'SYM'
p2501
F0.0034830569262678311
sS'UH'
p2502
F0.0034830569262678311
ssbs(S'POS'
g2
tp2503
(imultinomial
Multinomial
p2504
(dp2505
g6
g7
(g8
tRp2506
sg10
F0
sg11
g7
(g8
tRp2507
S'PRP$'
p2508
F0.0032261400547879387
sS'VBG'
p2509
F0.0068824746334716965
sS'FW'
p2510
F0.0010280298623250965
sS'``'
p2511
F0.0041908255352372508
sS','
F0.01540900162273127
sS"''"
p2512
F0.00092497245040902446
sS'VBP'
p2513
F0.0095185053864324954
sS'WDT'
p2514
F0.0011425305653717474
sS'JJ'
p2515
F0.022197026082977394
sS'WP'
p2516
F0.0013138033084489113
sS'VBZ'
p2517
F0.023296675037012677
sS'DT'
p2518
F0.09432583003825365
sS'#'
F0.0002894797647653965
sS'RP'
p2519
F0.0020558916057472395
sS'$'
F0.00068848393252971354
sS'NN'
p2520
F0.16008981747180681
sS')'
F0.0002894797647653965
sS'('
F0.00062717204666018738
sS'VBD'
p2521
F0.021856064680493212
sS'POS'
p2522
F0.00392200708840544
sS'.'
F0.0002894797647653965
sS'TO'
p2523
F0.010206966238291162
sS'PRP'
p2524
F0.010322744850124233
sS'RB'
p2525
F0.022181873807012756
sS':'
F0.0019041712037276559
sS'NNS'
p2526
F0.048091835744285175
sS'NNP'
p2527
F0.39534770520182105
sS'VB'
p2528
F0.015632992008699685
sS'WRB'
p2529
F0.00063153678579817916
sS'CC'
p2530
F0.014459466712259545
sS'LS'
p2531
F0.0002894797647653965
sS'PDT'
p2532
F0.00052098630703166179
sS'RBS'
p2533
F0.0002894797647653965
sS'RBR'
p2534
F0.001251421712587142
sS'VBN'
p2535
F0.012279539562306603
sS'EX'
p2536
F0.0013210921839124925
sS'IN'
p2537
F0.068722129550688626
sS'WP$'
p2538
F0.0002894797647653965
sS'CD'
p2539
F0.0080711485461375868
sS'MD'
p2540
F0.0047473028845871805
sS'NNPS'
p2541
F0.0056453562911143937
sS'JJS'
p2542
F0.0014908736027034577
sS'JJR'
p2543
F0.0011985546547835459
sS'SYM'
p2544
F0.0012506923956684816
sS'UH'
p2545
F0.0002894797647653965
ssbs(S'*'
S'right'
tp2546
(imultinomial
Multinomial
p2547
(dp2548
g6
g7
(g8
tRp2549
sg10
F0
sg11
g7
(g8
tRp2550
S'PRP$'
p2551
F0.0067145527416198753
sS'VBG'
p2552
F0.011904357326513224
sS'VBD'
p2553
F0.038182945652057966
sS'VBN'
p2554
F0.020966491571914846
sS'POS'
p2555
F0.0064613943042198911
sS"''"
p2556
F0.0085895635211264316
sS'VBP'
p2557
F0.020247245051161177
sS'WDT'
p2558
F0.0012909181464058931
sS'JJ'
p2559
F0.060497406024651458
sS'WP'
p2560
F0.0022168037188285885
sS'VBZ'
p2561
F0.033067878789926314
sS'DT'
p2562
F0.076257973897284531
sS'#'
F7.0132871178648195e-05
sS'RP'
p2563
F0.0024959925841660123
sS'$'
F0.0068495692092349183
sS'NN'
p2564
F0.12672781670577579
sS')'
F0.001245688460534388
sS'('
F0.0011506472828049453
sS'FW'
p2565
F0.00032209407561844508
sS','
F0.025572462715539129
sS'.'
F0.096621296772527537
sS'TO'
p2566
F0.019104424451222658
sS'LS'
p2567
F0.0002223407847030094
sS'RB'
p2568
F0.04543766754255131
sS':'
F0.013066543340290969
sS'NNS'
p2569
F0.067378991257599025
sS'PRP'
p2570
F0.026344904447636298
sS'``'
p2571
F0.0085285421959435097
sS'WRB'
p2572
F0.0015900451513308099
sS'CC'
p2573
F0.017767540582427192
sS'PDT'
p2574
F0.00052030299121086007
sS'RBS'
p2575
F0.0005031778369554451
sS'RBR'
p2576
F0.0017231377384142712
sS'CD'
p2577
F0.041145628634733838
sS'EX'
p2578
F0.0015070201182878378
sS'IN'
p2579
F0.066107715925730171
sS'WP$'
p2580
F2.546282343278242e-05
sS'MD'
p2581
F0.010899192057237684
sS'NNPS'
p2582
F0.0040162001893687205
sS'JJS'
p2583
F0.0020093529500408679
sS'JJR'
p2584
F0.0036771465463729044
sS'SYM'
p2585
F0.00085360974528963813
sS'VB'
p2586
F0.026479087006076776
sS'UH'
p2587
F0.00077518074390990253
sS'NNP'
p2588
F0.092863553516143338
ssbs(S'NN'
g137
tp2589
(imultinomial
Multinomial
p2590
(dp2591
g6
g7
(g8
tRp2592
sg10
F0
sg11
g7
(g8
tRp2593
S'PRP$'
p2594
F0.0036189633146709206
sS'VBG'
p2595
F0.0086072208128685542
sS'FW'
p2596
F0.00017798162237160834
sS'``'
p2597
F0.0016590082175526107
sS','
F0.033288349388553719
sS"''"
p2598
F0.012537096856286113
sS'VBP'
p2599
F0.0084151835166649223
sS'WDT'
p2600
F0.0020527273757587174
sS'JJ'
p2601
F0.034122244635645442
sS'WP'
p2602
F0.00058437666169255183
sS'VBZ'
p2603
F0.047739897119470624
sS'DT'
p2604
F0.037910901775807998
sS'#'
F7.0049169277649386e-05
sS'RP'
p2605
F0.0019594949856773336
sS'$'
F0.0078788957826418805
sS'NN'
p2606
F0.11107062266146983
sS')'
F0.0014509802297449331
sS'('
F0.00050375214840594118
sS'VBD'
p2607
F0.051502919639336349
sS'POS'
p2608
F0.0083963699589490147
sS'.'
F0.248559925221604
sS'TO'
p2609
F0.024220908680674391
sS'PRP'
p2610
F0.007673816565529277
sS'RB'
p2611
F0.03080581434353348
sS':'
F0.012142468054023369
sS'NNS'
p2612
F0.067490851689221421
sS'NNP'
p2613
F0.031501230547178204
sS'VB'
p2614
F0.015691064516003259
sS'WRB'
p2615
F0.00075250947987217753
sS'CC'
p2616
F0.015824260413463766
sS'LS'
p2617
F1.5794020828721748e-05
sS'PDT'
p2618
F0.00018823193242680029
sS'RBS'
p2619
F0.00018146506624947483
sS'RBR'
p2620
F0.0014732522342954999
sS'VBN'
p2621
F0.017179198013100128
sS'EX'
p2622
F0.00022699288980957099
sS'IN'
p2623
F0.10313203792842406
sS'WP$'
p2624
F4.878438806795843e-05
sS'CD'
p2625
F0.030818006155619318
sS'MD'
p2626
F0.013504099755073029
sS'NNPS'
p2627
F0.00092169177428106915
sS'JJS'
p2628
F0.00082743167589272373
sS'JJR'
p2629
F0.0029077222687579635
sS'SYM'
p2630
F0.00020542111888231462
sS'UH'
p2631
F0.00015998539434166644
ssbs(S'RB'
g2
tp2632
(imultinomial
Multinomial
p2633
(dp2634
g6
g7
(g8
tRp2635
sg10
F0
sg11
g7
(g8
tRp2636
S'PRP$'
p2637
F0.0046568883147996738
sS'VBG'
p2638
F0.014223025089777054
sS'FW'
p2639
F0.00012928257810749188
sS'``'
p2640
F0.020161016552599848
sS','
F0.047002319283063761
sS"''"
p2641
F0.0012817984390283471
sS'VBP'
p2642
F0.059395611390805292
sS'WDT'
p2643
F0.00200075887487765
sS'JJ'
p2644
F0.033455532764059798
sS'WP'
p2645
F0.0029204699290769692
sS'VBZ'
p2646
F0.077990165895083216
sS'DT'
p2647
F0.072584614535397121
sS'#'
F5.0484069907116784e-05
sS'RP'
p2648
F0.0022141661829292061
sS'$'
F0.0012903069140892988
sS'NN'
p2649
F0.10301367289753789
sS')'
F0.00045280701281844927
sS'('
F0.0012353392360899928
sS'VBD'
p2650
F0.068816673354538477
sS'POS'
p2651
F0.0041642004982378822
sS'.'
F7.4376020058471601e-05
sS'TO'
p2652
F0.0072691145410894685
sS'PRP'
p2653
F0.066843717732335467
sS'RB'
p2654
F0.06419138790353858
sS':'
F0.0028381620063780005
sS'NNS'
p2655
F0.081358256886389965
sS'NNP'
p2656
F0.068187875489512509
sS'VB'
p2657
F0.026995868014795914
sS'WRB'
p2658
F0.0031419254277614277
sS'CC'
p2659
F0.034915379084832741
sS'LS'
p2660
F8.0517918553920157e-05
sS'PDT'
p2661
F0.00034898708499814821
sS'RBS'
p2662
F0.00068252225761245434
sS'RBR'
p2663
F0.0020660398362317284
sS'VBN'
p2664
F0.019916658537426205
sS'EX'
p2665
F0.0027064213472621362
sS'IN'
p2666
F0.040164095683153427
sS'WP$'
p2667
F7.3917522970406012e-05
sS'CD'
p2668
F0.016243041682242769
sS'MD'
p2669
F0.037898349711921235
sS'NNPS'
p2670
F0.0029452678070686082
sS'JJS'
p2671
F0.0013138327775781473
sS'JJR'
p2672
F0.0017563754235426299
sS'SYM'
p2673
F0.00067403114067954284
sS'UH'
p2674
F0.00027474434924136976
ssbs(S'WP'
g2
tp2675
(imultinomial
Multinomial
p2676
(dp2677
g6
g7
(g8
tRp2678
sg10
F0
sg11
g7
(g8
tRp2679
S'PRP$'
p2680
F0.0039753113686083674
sS'VBG'
p2681
F0.021078562294475963
sS'FW'
p2682
F0.0014051444660350063
sS'``'
p2683
F0.068214201327907814
sS','
F0.066446920369571075
sS"''"
p2684
F0.0014051444660350063
sS'VBP'
p2685
F0.040562478813234402
sS'WDT'
p2686
F0.0044083343142411408
sS'JJ'
p2687
F0.031670796448121021
sS'WP'
p2688
F0.0027506360850456666
sS'VBZ'
p2689
F0.065561871906240715
sS'DT'
p2690
F0.07468259605055394
sS'#'
F0.0014051444660350063
sS'RP'
p2691
F0.003246716563839435
sS'$'
F0.0014051444660350063
sS'NN'
p2692
F0.055619129429334814
sS')'
F0.0056703809202584077
sS'('
F0.0038631231238221912
sS'VBD'
p2693
F0.023474557817779861
sS'POS'
p2694
F0.0017429281146481299
sS'.'
F0.0014051444660350063
sS'TO'
p2695
F0.011859576352319427
sS'PRP'
p2696
F0.045710514976219176
sS'RB'
p2697
F0.099730673586277074
sS':'
F0.0014051444660350063
sS'NNS'
p2698
F0.06611118778035234
sS'NNP'
p2699
F0.060425051330189682
sS'VB'
p2700
F0.040313347056483144
sS'WRB'
p2701
F0.0029738360978382753
sS'CC'
p2702
F0.071223419972037336
sS'LS'
p2703
F0.0014051444660350063
sS'PDT'
p2704
F0.0031433395201096791
sS'RBS'
p2705
F0.0014051444660350063
sS'RBR'
p2706
F0.0014051444660350063
sS'VBN'
p2707
F0.011655022223877024
sS'EX'
p2708
F0.0029144892616271836
sS'IN'
p2709
F0.06804803863418267
sS'WP$'
p2710
F0.0014051444660350063
sS'CD'
p2711
F0.0087055998551999348
sS'MD'
p2712
F0.0075598269475900893
sS'NNPS'
p2713
F0.0046834837414020053
sS'JJS'
p2714
F0.0037071696581567654
sS'JJR'
p2715
F0.0014051444660350063
sS'SYM'
p2716
F0.0014051444660350063
sS'UH'
p2717
F0.0014051444660350063
ssbs(S'PRP$'
g2
tp2718
(imultinomial
Multinomial
p2719
(dp2720
g6
g7
(g8
tRp2721
sg10
F0
sg11
g7
(g8
tRp2722
S'PRP$'
p2723
F0.0032539071786196394
sS'VBG'
p2724
F0.036838056927247904
sS'FW'
p2725
F0.0010905532079847097
sS'``'
p2726
F0.02543699708848679
sS','
F0.03166970219301922
sS"''"
p2727
F0.0022818397216825821
sS'VBP'
p2728
F0.034714689519161436
sS'WDT'
p2729
F0.00089233182701280655
sS'JJ'
p2730
F0.025353873031688071
sS'WP'
p2731
F0.0048918550753494928
sS'VBZ'
p2732
F0.049642856429957492
sS'DT'
p2733
F0.048675044480293347
sS'#'
F0.0003074263061565223
sS'RP'
p2734
F0.008686878131508308
sS'$'
F0.00063518449541046017
sS'NN'
p2735
F0.071763532311517039
sS')'
F0.00045626826776399334
sS'('
F0.0024654693084917158
sS'VBD'
p2736
F0.073387872441597377
sS'POS'
p2737
F0.0052568178736440083
sS'.'
F0.00069727850599269139
sS'TO'
p2738
F0.027658753814266832
sS'PRP'
p2739
F0.037921886377236778
sS'RB'
p2740
F0.050014529582096304
sS':'
F0.0013295212273692055
sS'NNS'
p2741
F0.044778237344188628
sS'NNP'
p2742
F0.063980372601248961
sS'VB'
p2743
F0.078103845037713254
sS'WRB'
p2744
F0.0026728922940965679
sS'CC'
p2745
F0.034058524224997958
sS'LS'
p2746
F0.0006532456128982481
sS'PDT'
p2747
F0.0032709765847056143
sS'RBS'
p2748
F0.0003074263061565223
sS'RBR'
p2749
F0.0014460452601786377
sS'VBN'
p2750
F0.01969234232235061
sS'EX'
p2751
F0.00069803482259712946
sS'IN'
p2752
F0.16714325358418186
sS'WP$'
p2753
F0.0003074263061565223
sS'CD'
p2754
F0.0091294913156558088
sS'MD'
p2755
F0.017903029748600627
sS'NNPS'
p2756
F0.0022626263872001545
sS'JJS'
p2757
F0.0036158421183875955
sS'JJR'
p2758
F0.0031420104298758942
sS'SYM'
p2759
F0.0003074263061565223
sS'UH'
p2760
F0.0012038260690978098
ssbs(S'CD'
g2
tp2761
(imultinomial
Multinomial
p2762
(dp2763
g6
g7
(g8
tRp2764
sg10
F0
sg11
g7
(g8
tRp2765
S'PRP$'
p2766
F0.0029508062890083674
sS'VBG'
p2767
F0.0062833280447247035
sS'FW'
p2768
F0.00010666731799563053
sS'``'
p2769
F0.0024154128564934313
sS','
F0.026598519799647037
sS"''"
p2770
F0.0007679822162258538
sS'VBP'
p2771
F0.0064254972350621569
sS'WDT'
p2772
F0.00079738148212814795
sS'JJ'
p2773
F0.029334791792124532
sS'WP'
p2774
F0.00017429775116422716
sS'VBZ'
p2775
F0.020691032106903116
sS'DT'
p2776
F0.051444483765992893
sS'#'
F0.00093323367518125065
sS'RP'
p2777
F0.00094217394762123011
sS'$'
F0.1047743439117617
sS'NN'
p2778
F0.092680275437352841
sS')'
F0.00010476901191813629
sS'('
F0.00078996183652691506
sS'VBD'
p2779
F0.10119195790890152
sS'POS'
p2780
F0.0043046271180735727
sS'.'
F0.00026730034741364098
sS'TO'
p2781
F0.059013042560409248
sS'PRP'
p2782
F0.0071970005755488363
sS'RB'
p2783
F0.028944918516698531
sS':'
F0.013824369599539652
sS'NNS'
p2784
F0.04361774223022058
sS'NNP'
p2785
F0.088581980505999386
sS'VB'
p2786
F0.010282470414405455
sS'WRB'
p2787
F0.0005847307145618564
sS'CC'
p2788
F0.0091316735784859604
sS'LS'
p2789
F0.00011075617484509654
sS'PDT'
p2790
F7.5579800451470788e-05
sS'RBS'
p2791
F0.00022061419451350282
sS'RBR'
p2792
F0.00050600014123948467
sS'VBN'
p2793
F0.013893771039240553
sS'EX'
p2794
F0.00077166684218370771
sS'IN'
p2795
F0.10515223733556286
sS'WP$'
p2796
F4.4496847738639041e-05
sS'CD'
p2797
F0.15199137646083843
sS'MD'
p2798
F0.003655388339625568
sS'NNPS'
p2799
F0.0025984378229124464
sS'JJS'
p2800
F0.0021317376123396741
sS'JJR'
p2801
F0.002982811949638823
sS'SYM'
p2802
F0.00059375468047684473
sS'UH'
p2803
F0.0001145982103026949
ssbs(S'VBG'
g137
tp2804
(imultinomial
Multinomial
p2805
(dp2806
g6
g7
(g8
tRp2807
sg10
F0
sg11
g7
(g8
tRp2808
S'PRP$'
p2809
F0.017939067546649239
sS'VBG'
p2810
F0.010297587962713571
sS'FW'
p2811
F0.00023859712621624411
sS'``'
p2812
F0.0015994584014330897
sS','
F0.017139054200519262
sS"''"
p2813
F0.014777781770864513
sS'VBP'
p2814
F0.0069364774173822693
sS'WDT'
p2815
F0.0012945989557727928
sS'JJ'
p2816
F0.061560378419301148
sS'WP'
p2817
F0.0021055492552733675
sS'VBZ'
p2818
F0.0087758214962382151
sS'DT'
p2819
F0.097078404149187406
sS'#'
F0.00029229879614411388
sS'RP'
p2820
F0.013282150644201747
sS'$'
F0.0058715225223109702
sS'NN'
p2821
F0.13656282415212762
sS')'
F0.0013069880634779944
sS'('
F0.00043713018833049327
sS'VBD'
p2822
F0.011676102267479706
sS'POS'
p2823
F0.0036237830172786097
sS'.'
F0.16471121758967017
sS'TO'
p2824
F0.040090962483358958
sS'PRP'
p2825
F0.017209006362229093
sS'RB'
p2826
F0.042621200143258771
sS':'
F0.0024326707753423295
sS'NNS'
p2827
F0.095590955080209802
sS'NNP'
p2828
F0.040785087323898475
sS'VB'
p2829
F0.018880528985646419
sS'WRB'
p2830
F0.00061390482273198559
sS'CC'
p2831
F0.01028518736796308
sS'LS'
p2832
F0.00015157971146789563
sS'PDT'
p2833
F0.00089651235720409532
sS'RBS'
p2834
F0.00019055337465523331
sS'RBR'
p2835
F0.0039745518999999624
sS'VBN'
p2836
F0.021699788861610479
sS'EX'
p2837
F0.00015157971146789563
sS'IN'
p2838
F0.095135194458008152
sS'WP$'
p2839
F0.00015157971146789563
sS'CD'
p2840
F0.020548376919214281
sS'MD'
p2841
F0.0030205047285741062
sS'NNPS'
p2842
F0.0011805104363375579
sS'JJS'
p2843
F0.0010275642210889994
sS'JJR'
p2844
F0.0053143652635944064
sS'SYM'
p2845
F0.00015157971146789563
sS'UH'
p2846
F0.00038946134663033199
ssbs(S'*'
S'left'
tp2847
(imultinomial
Multinomial
p2848
(dp2849
g6
g7
(g8
tRp2850
sg10
F0
sg11
g7
(g8
tRp2851
g2551
F0.0067145527416198753
sg2552
F0.011904357326513224
sg2553
F0.038182945652057966
sg2554
F0.020966491571914846
sg2555
F0.0064613943042198911
sg2556
F0.0085895635211264316
sg2557
F0.020247245051161177
sg2558
F0.0012909181464058931
sg2559
F0.060497406024651458
sg2560
F0.0022168037188285885
sg2561
F0.033067878789926314
sg2562
F0.076257973897284531
sS'#'
F7.0132871178648195e-05
sg2563
F0.0024959925841660123
sS'$'
F0.0068495692092349183
sg2564
F0.12672781670577579
sS')'
F0.001245688460534388
sS'('
F0.0011506472828049453
sg2565
F0.00032209407561844508
sS','
F0.025572462715539129
sS'.'
F0.096621296772527537
sg2566
F0.019104424451222658
sg2567
F0.0002223407847030094
sg2568
F0.04543766754255131
sS':'
F0.013066543340290969
sg2569
F0.067378991257599025
sg2570
F0.026344904447636298
sg2571
F0.0085285421959435097
sg2572
F0.0015900451513308099
sg2573
F0.017767540582427192
sg2574
F0.00052030299121086007
sg2575
F0.0005031778369554451
sg2576
F0.0017231377384142712
sg2577
F0.041145628634733838
sg2578
F0.0015070201182878378
sg2579
F0.066107715925730171
sg2580
F2.546282343278242e-05
sg2581
F0.010899192057237684
sg2582
F0.0040162001893687205
sg2583
F0.0020093529500408679
sg2584
F0.0036771465463729044
sg2585
F0.00085360974528963813
sg2586
F0.026479087006076776
sg2587
F0.00077518074390990253
sg2588
F0.092863553516143338
ssbs(S'TO'
g2
tp2852
(imultinomial
Multinomial
p2853
(dp2854
g6
g7
(g8
tRp2855
sg10
F0
sg11
g7
(g8
tRp2856
S'PRP$'
p2857
F0.0046431167519507743
sS'VBG'
p2858
F0.025361025632157381
sS'FW'
p2859
F0.00018437173488057131
sS'``'
p2860
F0.0094982447987555455
sS','
F0.018467449106921767
sS"''"
p2861
F0.00060897895677484331
sS'VBP'
p2862
F0.03831183244992005
sS'WDT'
p2863
F0.0011846045637970491
sS'JJ'
p2864
F0.058272167868693457
sS'WP'
p2865
F0.0031493539053686886
sS'VBZ'
p2866
F0.056827654725059927
sS'DT'
p2867
F0.05627586529053237
sS'#'
F9.3110333583297115e-05
sS'RP'
p2868
F0.0028431323245662636
sS'$'
F0.0018621550838702004
sS'NN'
p2869
F0.15087840869262284
sS')'
F0.00023525419393281011
sS'('
F0.00028160150442731261
sS'VBD'
p2870
F0.09672922454791176
sS'POS'
p2871
F0.0037173117190460398
sS'.'
F0.00015687282746910616
sS'TO'
p2872
F0.0063818808102822948
sS'PRP'
p2873
F0.038006271635675368
sS'RB'
p2874
F0.046823324204587513
sS':'
F0.0018613054719302303
sS'NNS'
p2875
F0.07488047873655522
sS'NNP'
p2876
F0.079997711674261465
sS'VB'
p2877
F0.036850648517218594
sS'WRB'
p2878
F0.0012697179046042464
sS'CC'
p2879
F0.012752314067138761
sS'LS'
p2880
F9.3110333583297115e-05
sS'PDT'
p2881
F0.00030396839838531866
sS'RBS'
p2882
F0.00074515171176342163
sS'RBR'
p2883
F0.0019170188351821688
sS'VBN'
p2884
F0.044689138199546286
sS'EX'
p2885
F0.0014946044416548638
sS'IN'
p2886
F0.02707130348103327
sS'WP$'
p2887
F9.3110333583297115e-05
sS'CD'
p2888
F0.073920035566851963
sS'MD'
p2889
F0.012183740856061625
sS'NNPS'
p2890
F0.0023438125223363315
sS'JJS'
p2891
F0.0017735432708951406
sS'JJR'
p2892
F0.0038938793820697697
sS'SYM'
p2893
F9.3110333583297115e-05
sS'UH'
p2894
F0.00097908229897421479
ssbs(S'VBD'
g137
tp2895
(imultinomial
Multinomial
p2896
(dp2897
g6
g7
(g8
tRp2898
sg10
F0
sg11
g7
(g8
tRp2899
S'PRP$'
p2900
F0.011066927763605095
sS'VBG'
p2901
F0.013858802314775195
sS'FW'
p2902
F0.00011249888357920457
sS'``'
p2903
F0.0029889801318921348
sS','
F0.018695815348506513
sS"''"
p2904
F0.0050139593851692942
sS'VBP'
p2905
F0.0017042654080245058
sS'WDT'
p2906
F0.00066885363382740675
sS'JJ'
p2907
F0.063644305670378237
sS'WP'
p2908
F0.00074161406071168441
sS'VBZ'
p2909
F0.0041102098467892638
sS'DT'
p2910
F0.086964423290257192
sS'#'
F0.00011641055887051693
sS'RP'
p2911
F0.0065296140452956695
sS'$'
F0.017603151798495524
sS'NN'
p2912
F0.099075103607881937
sS')'
F0.00063597877478448618
sS'('
F0.00023870060757826087
sS'VBD'
p2913
F0.010833931496187093
sS'POS'
p2914
F0.0035055464345112013
sS'.'
F0.1453441970373523
sS'TO'
p2915
F0.047859164487464571
sS'PRP'
p2916
F0.021968716213982879
sS'RB'
p2917
F0.063998698099169873
sS':'
F0.0017749380253490245
sS'NNS'
p2918
F0.043005733312847107
sS'NNP'
p2919
F0.038598884298017722
sS'VB'
p2920
F0.019648987726679154
sS'WRB'
p2921
F0.00083898932275004127
sS'CC'
p2922
F0.0083766155839071783
sS'LS'
p2923
F4.8092191931864512e-05
sS'PDT'
p2924
F0.00055011964966173029
sS'RBS'
p2925
F0.00079857111659143018
sS'RBR'
p2926
F0.0035711205087542164
sS'VBN'
p2927
F0.047038051937633753
sS'EX'
p2928
F0.00065225352724414135
sS'IN'
p2929
F0.086763422312751165
sS'WP$'
p2930
F6.6211699096146228e-05
sS'CD'
p2931
F0.10545554687944629
sS'MD'
p2932
F0.0045942982350792591
sS'NNPS'
p2933
F0.0006678737554683343
sS'JJS'
p2934
F0.0015059530276058935
sS'JJR'
p2935
F0.0083900979750500468
sS'SYM'
p2936
F4.8092191931864512e-05
sS'UH'
p2937
F0.0003262778231136194
ssbs(S'JJR'
g137
tp2938
(imultinomial
Multinomial
p2939
(dp2940
g6
g7
(g8
tRp2941
sg10
F0
sg11
g7
(g8
tRp2942
S'PRP$'
p2943
F0.0049028520142628436
sS'VBG'
p2944
F0.007535193051063831
sS'FW'
p2945
F0.00051475053678417117
sS'``'
p2946
F0.00177725711889181
sS','
F0.022997115024745083
sS"''"
p2947
F0.013255663694384554
sS'VBP'
p2948
F0.010773597292072386
sS'WDT'
p2949
F0.0013829814552616679
sS'JJ'
p2950
F0.037687974621136731
sS'WP'
p2951
F0.00051475053678417117
sS'VBZ'
p2952
F0.01476848664971837
sS'DT'
p2953
F0.036662219206308314
sS'#'
F0.00051475053678417117
sS'RP'
p2954
F0.0011241502426424534
sS'$'
F0.0058372333519793682
sS'NN'
p2955
F0.15742120606024593
sS')'
F0.00073348912305052857
sS'('
F0.00051475053678417117
sS'VBD'
p2956
F0.012626730093893335
sS'POS'
p2957
F0.0018634132729022927
sS'.'
F0.21345657291570444
sS'TO'
p2958
F0.02060453165369212
sS'PRP'
p2959
F0.012815200575138677
sS'RB'
p2960
F0.016922215337198818
sS':'
F0.00084240596617096675
sS'NNS'
p2961
F0.12310528526060951
sS'NNP'
p2962
F0.020299017125807495
sS'VB'
p2963
F0.013941583826386682
sS'WRB'
p2964
F0.0025686993178721472
sS'CC'
p2965
F0.014112650376176424
sS'LS'
p2966
F0.00051475053678417117
sS'PDT'
p2967
F0.001718541947362668
sS'RBS'
p2968
F0.0010095802503763099
sS'RBR'
p2969
F0.0018182904894681344
sS'VBN'
p2970
F0.0085507581831026445
sS'EX'
p2971
F0.00084704254996644164
sS'IN'
p2972
F0.15957216662192614
sS'WP$'
p2973
F0.00051475053678417117
sS'CD'
p2974
F0.034759442798798244
sS'MD'
p2975
F0.006547625107423293
sS'NNPS'
p2976
F0.00080811442874330309
sS'JJS'
p2977
F0.0017310428925572015
sS'JJR'
p2978
F0.0085016658086850983
sS'SYM'
p2979
F0.00051475053678417117
sS'UH'
p2980
F0.00051475053678417117
ssbs(S'PRP'
g137
tp2981
(imultinomial
Multinomial
p2982
(dp2983
g6
g7
(g8
tRp2984
sg10
F0
sg11
g7
(g8
tRp2985
S'PRP$'
p2986
F0.0066901005415871484
sS'VBG'
p2987
F0.01623443841429759
sS'FW'
p2988
F6.7277277313000904e-05
sS'``'
p2989
F0.003456807526063508
sS','
F0.017976124185834139
sS"''"
p2990
F0.020434477914935772
sS'VBP'
p2991
F0.091307878552004701
sS'WDT'
p2992
F0.0010593560153003376
sS'JJ'
p2993
F0.039671397636568156
sS'WP'
p2994
F0.001758949766588325
sS'VBZ'
p2995
F0.10978734166663402
sS'DT'
p2996
F0.053210660877676945
sS'#'
F6.7277277313000904e-05
sS'RP'
p2997
F0.0052918195161656915
sS'$'
F0.0010789594602072527
sS'NN'
p2998
F0.059429951931319419
sS')'
F0.00069932405584607297
sS'('
F0.0004711567068907698
sS'VBD'
p2999
F0.096533599444149493
sS'POS'
p3000
F0.0018546561484896491
sS'.'
F0.12523559580027366
sS'TO'
p3001
F0.022969315861376745
sS'PRP'
p3002
F0.020815589163138536
sS'RB'
p3003
F0.074703744649346385
sS':'
F0.002647399935610376
sS'NNS'
p3004
F0.024010052772448807
sS'NNP'
p3005
F0.018702442453454177
sS'VB'
p3006
F0.045880688964205024
sS'WRB'
p3007
F0.0012274481473618468
sS'CC'
p3008
F0.0083860463325723042
sS'LS'
p3009
F6.7277277313000904e-05
sS'PDT'
p3010
F0.00061274603801572778
sS'RBS'
p3011
F0.00051113669223922149
sS'RBR'
p3012
F0.0017192962520999912
sS'VBN'
p3013
F0.016469818413708322
sS'EX'
p3014
F0.00030402815797476198
sS'IN'
p3015
F0.050687750571854338
sS'WP$'
p3016
F6.7277277313000904e-05
sS'CD'
p3017
F0.0085692219959353153
sS'MD'
p3018
F0.044434061844260277
sS'NNPS'
p3019
F0.00053499869394633764
sS'JJS'
p3020
F0.00096628454715957132
sS'JJR'
p3021
F0.0031356609052750699
sS'SYM'
p3022
F6.7277277313000904e-05
sS'UH'
p3023
F0.00019328506061906377
ssbs(S'JJS'
g2
tp3024
(imultinomial
Multinomial
p3025
(dp3026
g6
g7
(g8
tRp3027
sg10
F0
sg11
g7
(g8
tRp3028
S'PRP$'
p3029
F0.018708289625143145
sS'VBG'
p3030
F0.0068058995767771241
sS'FW'
p3031
F0.001038136773762998
sS'``'
p3032
F0.017093300303253105
sS','
F0.028000258022408117
sS"''"
p3033
F0.0015231765862964454
sS'VBP'
p3034
F0.018665590747374235
sS'WDT'
p3035
F0.0042955636139456743
sS'JJ'
p3036
F0.022376416675513565
sS'WP'
p3037
F0.0032284716261937719
sS'VBZ'
p3038
F0.037814116346583562
sS'DT'
p3039
F0.23764720130693595
sS'#'
F0.001038136773762998
sS'RP'
p3040
F0.0034900613440337637
sS'$'
F0.0018046759914554708
sS'NN'
p3041
F0.057007291017089477
sS')'
F0.001038136773762998
sS'('
F0.001038136773762998
sS'VBD'
p3042
F0.033878064610326608
sS'POS'
p3043
F0.052383445423582163
sS'.'
F0.001038136773762998
sS'TO'
p3044
F0.0094675150654772028
sS'PRP'
p3045
F0.018582112505313442
sS'RB'
p3046
F0.033275122551266641
sS':'
F0.0035948954424324417
sS'NNS'
p3047
F0.034566535047948987
sS'NNP'
p3048
F0.050703529416137275
sS'VB'
p3049
F0.019252315197562028
sS'WRB'
p3050
F0.0014204534326558863
sS'CC'
p3051
F0.04774972958790992
sS'LS'
p3052
F0.001038136773762998
sS'PDT'
p3053
F0.0025768149526563754
sS'RBS'
p3054
F0.001038136773762998
sS'RBR'
p3055
F0.0013134952542387813
sS'VBN'
p3056
F0.010416812675974262
sS'EX'
p3057
F0.001038136773762998
sS'IN'
p3058
F0.18227285838545362
sS'WP$'
p3059
F0.001038136773762998
sS'CD'
p3060
F0.013796253128889246
sS'MD'
p3061
F0.0070630025533108994
sS'NNPS'
p3062
F0.0020337616421989696
sS'JJS'
p3063
F0.0021007043064267586
sS'JJR'
p3064
F0.0036727615258426789
sS'SYM'
p3065
F0.001038136773762998
sS'UH'
p3066
F0.001038136773762998
ssbs(S'VB'
g137
tp3067
(imultinomial
Multinomial
p3068
(dp3069
g6
g7
(g8
tRp3070
sg10
F0
sg11
g7
(g8
tRp3071
S'PRP$'
p3072
F0.01844790527755806
sS'VBG'
p3073
F0.010471671891033938
sS'FW'
p3074
F9.0895734631117443e-05
sS'``'
p3075
F0.0022181571325469115
sS','
F0.016112995249068382
sS"''"
p3076
F0.019691544068361766
sS'VBP'
p3077
F0.0033223757724036985
sS'WDT'
p3078
F0.0017633466324509842
sS'JJ'
p3079
F0.074471821855336101
sS'WP'
p3080
F0.0019806366561501351
sS'VBZ'
p3081
F0.0066840148436814288
sS'DT'
p3082
F0.1176002653889858
sS'#'
F0.0001263474580033954
sS'RP'
p3083
F0.012114678061714327
sS'$'
F0.0033565251406360986
sS'NN'
p3084
F0.11661074794307437
sS')'
F0.00054733557523154743
sS'('
F0.00043592415823307104
sS'VBD'
p3085
F0.0050882698808316553
sS'POS'
p3086
F0.0039432260318711552
sS'.'
F0.18137434711575989
sS'TO'
p3087
F0.028398624904964594
sS'PRP'
p3088
F0.029100824464833107
sS'RB'
p3089
F0.039735507894681298
sS':'
F0.0020938361591845427
sS'NNS'
p3090
F0.062380806979785146
sS'NNP'
p3091
F0.036539098991373031
sS'VB'
p3092
F0.019850264938717613
sS'WRB'
p3093
F0.004005205469679105
sS'CC'
p3094
F0.01124329484938965
sS'LS'
p3095
F7.2418664953165633e-05
sS'PDT'
p3096
F0.00073098555852812639
sS'RBS'
p3097
F0.00057054477244315889
sS'RBR'
p3098
F0.0028630553498994776
sS'VBN'
p3099
F0.043592986933051928
sS'EX'
p3100
F0.00034640215042252702
sS'IN'
p3101
F0.092414984944498263
sS'WP$'
p3102
F7.2418664953165633e-05
sS'CD'
p3103
F0.017421094211458533
sS'MD'
p3104
F0.0022217204835574323
sS'NNPS'
p3105
F0.00057853730980200106
sS'JJS'
p3106
F0.0013648457999928232
sS'JJR'
p3107
F0.0076594467108667824
sS'SYM'
p3108
F7.2418664953165633e-05
sS'UH'
p3109
F0.00021764326044748143
ssbs(S'RP'
g137
tp3110
(imultinomial
Multinomial
p3111
(dp3112
g6
g7
(g8
tRp3113
sg10
F0
sg11
g7
(g8
tRp3114
S'PRP$'
p3115
F0.022367417091636092
sS'VBG'
p3116
F0.018860634798768938
sS'FW'
p3117
F0.00077666224149322961
sS'``'
p3118
F0.0045261848747496945
sS','
F0.019205662633325536
sS"''"
p3119
F0.02033183106409512
sS'VBP'
p3120
F0.0051900985935339006
sS'WDT'
p3121
F0.0011261245907417902
sS'JJ'
p3122
F0.04803941231367001
sS'WP'
p3123
F0.0018072196286607674
sS'VBZ'
p3124
F0.0074996502179130462
sS'DT'
p3125
F0.10981981613378351
sS'#'
F0.00077666224149322961
sS'RP'
p3126
F0.0028968221819448909
sS'$'
F0.0032918286679955075
sS'NN'
p3127
F0.093443207650994176
sS')'
F0.001167735957128717
sS'('
F0.0015287119471644904
sS'VBD'
p3128
F0.0046196966391903824
sS'POS'
p3129
F0.0055909565451689744
sS'.'
F0.24067339853657635
sS'TO'
p3130
F0.023562683402156819
sS'PRP'
p3131
F0.011745561250998234
sS'RB'
p3132
F0.035619551025030484
sS':'
F0.0024423159937293861
sS'NNS'
p3133
F0.072406903858549809
sS'NNP'
p3134
F0.044090657448245398
sS'VB'
p3135
F0.011045986631190717
sS'WRB'
p3136
F0.001412147512538165
sS'CC'
p3137
F0.013527691571945957
sS'LS'
p3138
F0.00077666224149322961
sS'PDT'
p3139
F0.00077666224149322961
sS'RBS'
p3140
F0.0011755593309895976
sS'RBR'
p3141
F0.0047470267558325143
sS'VBN'
p3142
F0.0059172698492095492
sS'EX'
p3143
F0.00077666224149322961
sS'IN'
p3144
F0.1271415065104918
sS'WP$'
p3145
F0.00077666224149322961
sS'CD'
p3146
F0.016646066345683632
sS'MD'
p3147
F0.0025123223811173009
sS'NNPS'
p3148
F0.0023094586070614188
sS'JJS'
p3149
F0.0026349325225883333
sS'JJR'
p3150
F0.0028626510036535548
sS'SYM'
p3151
F0.00077666224149322961
sS'UH'
p3152
F0.00077666224149322961
ssbs(S'RBS'
g137
tp3153
(imultinomial
Multinomial
p3154
(dp3155
g6
g7
(g8
tRp3156
sg10
F0
sg11
g7
(g8
tRp3157
S'PRP$'
p3158
F0.0028360709184636645
sS'VBG'
p3159
F0.0067041191648934276
sS'FW'
p3160
F0.0028360709184636645
sS'``'
p3161
F0.0055204529476585388
sS','
F0.039128218523910199
sS"''"
p3162
F0.0072815558681457162
sS'VBP'
p3163
F0.017201092832301864
sS'WDT'
p3164
F0.0028360709184636645
sS'JJ'
p3165
F0.27106315632844913
sS'WP'
p3166
F0.0028360709184636645
sS'VBZ'
p3167
F0.019465792651296405
sS'DT'
p3168
F0.040630150729530613
sS'#'
F0.0028360709184636645
sS'RP'
p3169
F0.003980307023895689
sS'$'
F0.0028360709184636645
sS'NN'
p3170
F0.099555052364167923
sS')'
F0.0028360709184636645
sS'('
F0.0028360709184636645
sS'VBD'
p3171
F0.010241793925821254
sS'POS'
p3172
F0.0028360709184636645
sS'.'
F0.088342194506100813
sS'TO'
p3173
F0.022299266422305144
sS'PRP'
p3174
F0.0070048240879359673
sS'RB'
p3175
F0.03425333404536611
sS':'
F0.012784780927634824
sS'NNS'
p3176
F0.064524165463215502
sS'NNP'
p3177
F0.025523905391369273
sS'VB'
p3178
F0.014171713723701424
sS'WRB'
p3179
F0.0028360709184636645
sS'CC'
p3180
F0.0068330106743914902
sS'LS'
p3181
F0.0028360709184636645
sS'PDT'
p3182
F0.0028360709184636645
sS'RBS'
p3183
F0.0028360709184636645
sS'RBR'
p3184
F0.0028360709184636645
sS'VBN'
p3185
F0.042650672492198068
sS'EX'
p3186
F0.0028360709184636645
sS'IN'
p3187
F0.083100908050399769
sS'WP$'
p3188
F0.0028360709184636645
sS'CD'
p3189
F0.014593723777379674
sS'MD'
p3190
F0.0035883187901954473
sS'NNPS'
p3191
F0.0028360709184636645
sS'JJS'
p3192
F0.0028360709184636645
sS'JJR'
p3193
F0.0028360709184636645
sS'SYM'
p3194
F0.0028360709184636645
sS'UH'
p3195
F0.0028360709184636645
ssbs(S'MD'
g2
tp3196
(imultinomial
Multinomial
p3197
(dp3198
g6
g7
(g8
tRp3199
sg10
F0
sg11
g7
(g8
tRp3200
S'PRP$'
p3201
F0.0037331543098820257
sS'VBG'
p3202
F0.0046170810868884655
sS'FW'
p3203
F0.00018930978143212791
sS'``'
p3204
F0.025519876882292097
sS','
F0.032367150549195339
sS"''"
p3205
F0.0017271982261525263
sS'VBP'
p3206
F0.010099192180460796
sS'WDT'
p3207
F0.0060355568573404045
sS'JJ'
p3208
F0.039077317762199221
sS'WP'
p3209
F0.0084197905862081288
sS'VBZ'
p3210
F0.012137995581075339
sS'DT'
p3211
F0.11392724991009626
sS'#'
F0.00018930978143212791
sS'RP'
p3212
F0.0006190198817463457
sS'$'
F0.00032082836584597602
sS'NN'
p3213
F0.17086473763214297
sS')'
F0.00028032639963187426
sS'('
F0.0007093481306183119
sS'VBD'
p3214
F0.019698068722265899
sS'POS'
p3215
F0.0047795534395267654
sS'.'
F0.00018930978143212791
sS'TO'
p3216
F0.0022782850828517416
sS'PRP'
p3217
F0.14227847593385487
sS'RB'
p3218
F0.043223016541187244
sS':'
F0.0015204845940393898
sS'NNS'
p3219
F0.11953247241458416
sS'NNP'
p3220
F0.11571997530925394
sS'VB'
p3221
F0.0060760415387161133
sS'WRB'
p3222
F0.0098754983876191624
sS'CC'
p3223
F0.032113272734174823
sS'LS'
p3224
F0.00018930978143212791
sS'PDT'
p3225
F0.00052917990208853642
sS'RBS'
p3226
F0.00025051190824483619
sS'RBR'
p3227
F0.00073052007621993772
sS'VBN'
p3228
F0.0072326194552110304
sS'EX'
p3229
F0.0060986438646624301
sS'IN'
p3230
F0.037352098599087051
sS'WP$'
p3231
F0.00018930978143212791
sS'CD'
p3232
F0.0080974577685437778
sS'MD'
p3233
F0.0017280256078409542
sS'NNPS'
p3234
F0.0036409913738860399
sS'JJS'
p3235
F0.0024973100553913486
sS'JJR'
p3236
F0.0026095552793586811
sS'SYM'
p3237
F0.00018930978143212791
sS'UH'
p3238
F0.0005462583810221009
ssbs(S'CC'
g137
tp3239
(imultinomial
Multinomial
p3240
(dp3241
g6
g7
(g8
tRp3242
sg10
F0
sg11
g7
(g8
tRp3243
S'PRP$'
p3244
F0.0092209123474842405
sS'VBG'
p3245
F0.013065613307781792
sS'FW'
p3246
F0.00020978455500884186
sS'``'
p3247
F0.0021569104324355242
sS','
F0.016443592965008361
sS"''"
p3248
F0.0076022040562525603
sS'VBP'
p3249
F0.028168216723738846
sS'WDT'
p3250
F0.00076993293430150593
sS'JJ'
p3251
F0.083134426757385013
sS'WP'
p3252
F0.0038119032703255217
sS'VBZ'
p3253
F0.027673588482337592
sS'DT'
p3254
F0.079741265116262547
sS'#'
F0.00016281096837618978
sS'RP'
p3255
F0.0020949977783114148
sS'$'
F0.001679918436735646
sS'NN'
p3256
F0.11926490499206008
sS')'
F0.00068357296459164529
sS'('
F0.00027094577512752497
sS'VBD'
p3257
F0.03450443274903537
sS'POS'
p3258
F0.0038130600836902956
sS'.'
F0.10778391468240482
sS'TO'
p3259
F0.011100576650145504
sS'PRP'
p3260
F0.042859511313375565
sS'RB'
p3261
F0.055312840808158473
sS':'
F0.0032663170684997869
sS'NNS'
p3262
F0.089889578436367357
sS'NNP'
p3263
F0.099667400302347886
sS'VB'
p3264
F0.02917271591605727
sS'WRB'
p3265
F0.0037713723097242261
sS'CC'
p3266
F0.0050018916946420796
sS'LS'
p3267
F9.5529729285418242e-05
sS'PDT'
p3268
F0.00094958314351054768
sS'RBS'
p3269
F0.00075121786966666961
sS'RBR'
p3270
F0.0011310729250461639
sS'VBN'
p3271
F0.016492328095553347
sS'EX'
p3272
F0.005384097473807318
sS'IN'
p3273
F0.045107029105791195
sS'WP$'
p3274
F9.5529729285418242e-05
sS'CD'
p3275
F0.018778002224076298
sS'MD'
p3276
F0.013109129293700846
sS'NNPS'
p3277
F0.0052001871349385423
sS'JJS'
p3278
F0.0034227575422865696
sS'JJR'
p3279
F0.0065482788984746821
sS'SYM'
p3280
F9.5529729285418242e-05
sS'UH'
p3281
F0.0005406132273178668
ssbs(S'VBZ'
g2
tp3282
(imultinomial
Multinomial
p3283
(dp3284
g6
g7
(g8
tRp3285
sg10
F0
sg11
g7
(g8
tRp3286
S'PRP$'
p3287
F0.0077610816240890473
sS'VBG'
p3288
F0.0043486135198592566
sS'FW'
p3289
F0.0010028828216565929
sS'``'
p3290
F0.025370646644137421
sS','
F0.042377536610841746
sS"''"
p3291
F0.011696947683680506
sS'VBP'
p3292
F0.0066903632930956844
sS'WDT'
p3293
F0.0074856799754513025
sS'JJ'
p3294
F0.032678827921875854
sS'WP'
p3295
F0.012293087783262572
sS'VBZ'
p3296
F0.010971280665021428
sS'DT'
p3297
F0.11714179823185512
sS'#'
F6.7267061714412326e-05
sS'RP'
p3298
F0.00062636824170816626
sS'$'
F0.00041029082865459612
sS'NN'
p3299
F0.21604384978651328
sS')'
F0.00072178817427196416
sS'('
F0.0013781925335120885
sS'VBD'
p3300
F0.0060823479747241964
sS'POS'
p3301
F0.0076451380365923525
sS'.'
F0.00050847516008479371
sS'TO'
p3302
F0.0030055486184103176
sS'PRP'
p3303
F0.12510603150327784
sS'RB'
p3304
F0.057094293504940864
sS':'
F0.0030288490245133528
sS'NNS'
p3305
F0.018960454346473515
sS'NNP'
p3306
F0.1832912238300711
sS'VB'
p3307
F0.0062333098920595827
sS'WRB'
p3308
F0.0026458332554968639
sS'CC'
p3309
F0.024588513156661808
sS'LS'
p3310
F0.00029475661485691546
sS'PDT'
p3311
F0.00054596497913436074
sS'RBS'
p3312
F0.0005014013623759777
sS'RBR'
p3313
F0.00051275597650081081
sS'VBN'
p3314
F0.0033193636669708419
sS'EX'
p3315
F0.012009982501059446
sS'IN'
p3316
F0.029489212539044799
sS'WP$'
p3317
F6.7267061714412326e-05
sS'CD'
p3318
F0.0070147014340057783
sS'MD'
p3319
F0.0014753133435867461
sS'NNPS'
p3320
F0.0030279569630567676
sS'JJS'
p3321
F0.0012239165996812164
sS'JJR'
p3322
F0.0019343030021095335
sS'SYM'
p3323
F0.0012105777067438503
sS'UH'
p3324
F0.00011600454465111763
ssbs(S'VBP'
g137
tp3325
(imultinomial
Multinomial
p3326
(dp3327
g6
g7
(g8
tRp3328
sg10
F0
sg11
g7
(g8
tRp3329
S'PRP$'
p3330
F0.0098702153205835925
sS'VBG'
p3331
F0.048833386748312307
sS'FW'
p3332
F0.00013404468524491012
sS'``'
p3333
F0.0028404499231367269
sS','
F0.018003575652795673
sS"''"
p3334
F0.015423269596021576
sS'VBP'
p3335
F0.0088142477041396015
sS'WDT'
p3336
F0.0015798636825494553
sS'JJ'
p3337
F0.092417237403620109
sS'WP'
p3338
F0.0024890704547986774
sS'VBZ'
p3339
F0.0086860885696611479
sS'DT'
p3340
F0.082423772615887
sS'#'
F0.00012691157768767971
sS'RP'
p3341
F0.0064407298802543304
sS'$'
F0.0023548611169378064
sS'NN'
p3342
F0.086040196918863443
sS')'
F0.00079079989032861911
sS'('
F0.00049644899416295435
sS'VBD'
p3343
F0.0057018963614903972
sS'POS'
p3344
F0.0027652111387690597
sS'.'
F0.12512351132600605
sS'TO'
p3345
F0.035367704849280833
sS'PRP'
p3346
F0.026599247477171118
sS'RB'
p3347
F0.1031022011716812
sS':'
F0.0034536280555045387
sS'NNS'
p3348
F0.05733402814518293
sS'NNP'
p3349
F0.025685864148441925
sS'VB'
p3350
F0.033060285620652892
sS'WRB'
p3351
F0.0023960717329662893
sS'CC'
p3352
F0.0098005912291071733
sS'LS'
p3353
F8.9958572294892704e-05
sS'PDT'
p3354
F0.00083797108325951177
sS'RBS'
p3355
F0.00089080317883361427
sS'RBR'
p3356
F0.0039807031887893439
sS'VBN'
p3357
F0.072480200565016917
sS'EX'
p3358
F0.0005862293391467136
sS'IN'
p3359
F0.075569273599498721
sS'WP$'
p3360
F8.9958572294892704e-05
sS'CD'
p3361
F0.012680937607757235
sS'MD'
p3362
F0.0044588481069803808
sS'NNPS'
p3363
F0.0016759767423324917
sS'JJS'
p3364
F0.0015725768377620767
sS'JJR'
p3365
F0.0066720750841225279
sS'SYM'
p3366
F8.9958572294892704e-05
sS'UH'
p3367
F0.00016911695837593105
ssbs(S'WRB'
g137
tp3368
(imultinomial
Multinomial
p3369
(dp3370
g6
g7
(g8
tRp3371
sg10
F0
sg11
g7
(g8
tRp3372
S'PRP$'
p3373
F0.0083136361009001711
sS'VBG'
p3374
F0.014138826734732265
sS'FW'
p3375
F0.0010682126647286231
sS'``'
p3376
F0.0018148859536875998
sS','
F0.01993720715266914
sS"''"
p3377
F0.015356547104713254
sS'VBP'
p3378
F0.036541380954119448
sS'WDT'
p3379
F0.0014527299875694132
sS'JJ'
p3380
F0.068266228434569684
sS'WP'
p3381
F0.0020953661855475764
sS'VBZ'
p3382
F0.036637122692030233
sS'DT'
p3383
F0.1092930126380052
sS'#'
F0.0010682126647286231
sS'RP'
p3384
F0.0061048600934932688
sS'$'
F0.0010682126647286231
sS'NN'
p3385
F0.084058225552522681
sS')'
F0.0041843452715890706
sS'('
F0.0010682126647286231
sS'VBD'
p3386
F0.052813697791828158
sS'POS'
p3387
F0.0022466434971879687
sS'.'
F0.10048997636233477
sS'TO'
p3388
F0.013246201545707929
sS'PRP'
p3389
F0.079961369712611766
sS'RB'
p3390
F0.059840342995071745
sS':'
F0.0018092135729167829
sS'NNS'
p3391
F0.057240070246046847
sS'NNP'
p3392
F0.04140729800700773
sS'VB'
p3393
F0.044352542235959892
sS'WRB'
p3394
F0.002290479051141579
sS'CC'
p3395
F0.0036140750141749434
sS'LS'
p3396
F0.0010682126647286231
sS'PDT'
p3397
F0.0043722023238911166
sS'RBS'
p3398
F0.0010682126647286231
sS'RBR'
p3399
F0.001287976657964569
sS'VBN'
p3400
F0.014902702980895115
sS'EX'
p3401
F0.0010682126647286231
sS'IN'
p3402
F0.03241093191547028
sS'WP$'
p3403
F0.0010682126647286231
sS'CD'
p3404
F0.013187702770839702
sS'MD'
p3405
F0.048362519070224437
sS'NNPS'
p3406
F0.0030507846657594337
sS'JJS'
p3407
F0.0015516934498477058
sS'JJR'
p3408
F0.0026850746296817811
sS'SYM'
p3409
F0.0010682126647286231
sS'UH'
p3410
F0.0010682126647286231
ssbs(S','
g2
tp3411
(imultinomial
Multinomial
p3412
(dp3413
g6
g7
(g8
tRp3414
sg10
F0
sg11
g7
(g8
tRp3415
S'PRP$'
p3416
F0.0056180209940140009
sS'VBG'
p3417
F0.0089910461012550728
sS'FW'
p3418
F0.00023893701386913392
sS'``'
p3419
F0.01240486590105155
sS','
F0.02539775563130554
sS"''"
p3420
F0.00075319615095876657
sS'VBP'
p3421
F0.015368864798533829
sS'WDT'
p3422
F0.00067133393454602431
sS'JJ'
p3423
F0.070669975069194077
sS'WP'
p3424
F0.0012575894483628474
sS'VBZ'
p3425
F0.026373999392510884
sS'DT'
p3426
F0.061438898828815591
sS'#'
F0.00011756963870176494
sS'RP'
p3427
F0.0018131666179045619
sS'$'
F0.0031945902546384906
sS'NN'
p3428
F0.16162675818461256
sS')'
F0.00011596348915811993
sS'('
F0.00089773453305505146
sS'VBD'
p3429
F0.02997479844172888
sS'POS'
p3430
F0.0035826557070345647
sS'.'
F0.00042883202512777782
sS'TO'
p3431
F0.0073616300436312749
sS'PRP'
p3432
F0.022736904278700426
sS'RB'
p3433
F0.11216923942057461
sS':'
F0.0035711463386564842
sS'NNS'
p3434
F0.085341958230772494
sS'NNP'
p3435
F0.13814598990304564
sS'VB'
p3436
F0.016762257881284319
sS'WRB'
p3437
F0.0017604554491255013
sS'CC'
p3438
F0.015748291531820151
sS'LS'
p3439
F0.0010762176542006537
sS'PDT'
p3440
F0.00051630954108771137
sS'RBS'
p3441
F0.0011675543279036525
sS'RBR'
p3442
F0.0034252580892131048
sS'VBN'
p3443
F0.016698408747346231
sS'EX'
p3444
F0.0013442744044391422
sS'IN'
p3445
F0.074237084422277888
sS'WP$'
p3446
F7.2853275240005323e-05
sS'CD'
p3447
F0.050009504779059542
sS'MD'
p3448
F0.0049085908429672819
sS'NNPS'
p3449
F0.0028929827898118159
sS'JJS'
p3450
F0.0021851956550321444
sS'JJR'
p3451
F0.0035389768045157198
sS'SYM'
p3452
F0.00070304157180819992
sS'UH'
p3453
F0.0026893218611068826
ssbs(S'VBD'
g2
tp3454
(imultinomial
Multinomial
p3455
(dp3456
g6
g7
(g8
tRp3457
sg10
F0
sg11
g7
(g8
tRp3458
S'PRP$'
p3459
F0.0044919189021556272
sS'VBG'
p3460
F0.0049220886513560418
sS'FW'
p3461
F0.00011209507465777221
sS'``'
p3462
F0.011791707759043485
sS','
F0.039949261726330836
sS"''"
p3463
F0.0081910582624079679
sS'VBP'
p3464
F0.0036371743068163436
sS'WDT'
p3465
F0.0047154485881374464
sS'JJ'
p3466
F0.037505777174729291
sS'WP'
p3467
F0.005496544056952885
sS'VBZ'
p3468
F0.0038292660793032927
sS'DT'
p3469
F0.088449346993650785
sS'#'
F7.7076083680492242e-05
sS'RP'
p3470
F0.00033288425267210278
sS'$'
F0.00073134433872261992
sS'NN'
p3471
F0.1973520058137597
sS')'
F9.2694855777120911e-05
sS'('
F0.00088229314115538873
sS'VBD'
p3472
F0.013184951828229288
sS'POS'
p3473
F0.0075350680933162122
sS'.'
F0.00023054913948745799
sS'TO'
p3474
F0.0023571728902910373
sS'PRP'
p3475
F0.092350641298198102
sS'RB'
p3476
F0.043957530896483639
sS':'
F0.0014191893683925777
sS'NNS'
p3477
F0.13521493126136286
sS'NNP'
p3478
F0.18816208823776101
sS'VB'
p3479
F0.0037564401796163992
sS'WRB'
p3480
F0.0033286001015376742
sS'CC'
p3481
F0.023522493901795217
sS'LS'
p3482
F5.6330967990090622e-05
sS'PDT'
p3483
F0.00029863121517613493
sS'RBS'
p3484
F0.00021155233590978731
sS'RBR'
p3485
F0.00079768071487284261
sS'VBN'
p3486
F0.0043945736852732354
sS'EX'
p3487
F0.0044529594778644445
sS'IN'
p3488
F0.033036984198194522
sS'WP$'
p3489
F5.6330967990090622e-05
sS'CD'
p3490
F0.015174249311972095
sS'MD'
p3491
F0.00080605829533373242
sS'NNPS'
p3492
F0.0089271176305248199
sS'JJS'
p3493
F0.0024242394531657279
sS'JJR'
p3494
F0.0016039322468046882
sS'SYM'
p3495
F5.6330967990090622e-05
sS'UH'
p3496
F0.0001233852731575968
ssbs(S'JJ'
g137
tp3497
(imultinomial
Multinomial
p3498
(dp3499
g6
g7
(g8
tRp3500
sg10
F0
sg11
g7
(g8
tRp3501
S'PRP$'
p3502
F0.0024925318316429642
sS'VBG'
p3503
F0.0078689654448646802
sS'FW'
p3504
F0.0001333570199268673
sS'``'
p3505
F0.0013844646030026627
sS','
F0.029153957569896336
sS"''"
p3506
F0.012951984816621954
sS'VBP'
p3507
F0.013890304360759193
sS'WDT'
p3508
F0.0010097620976084257
sS'JJ'
p3509
F0.052673849984685134
sS'WP'
p3510
F0.00064118136756089166
sS'VBZ'
p3511
F0.014535714746517764
sS'DT'
p3512
F0.026938747649807322
sS'#'
F0.0001183992917985132
sS'RP'
p3513
F0.0010338986087460615
sS'$'
F0.0031624129136208824
sS'NN'
p3514
F0.24116136296358184
sS')'
F0.00065516375422419151
sS'('
F0.00019210450490445642
sS'VBD'
p3515
F0.018943955363201339
sS'POS'
p3516
F0.0022810115775600656
sS'.'
F0.19718049032252513
sS'TO'
p3517
F0.01902239809192206
sS'PRP'
p3518
F0.0074997629162573019
sS'RB'
p3519
F0.019783459010807591
sS':'
F0.0062104527635648867
sS'NNS'
p3520
F0.14754192607998709
sS'NNP'
p3521
F0.034035284054184996
sS'VB'
p3522
F0.012090357625113296
sS'WRB'
p3523
F0.00072094252488060157
sS'CC'
p3524
F0.015639249185575813
sS'LS'
p3525
F3.204846599115946e-05
sS'PDT'
p3526
F0.00024200586269572391
sS'RBS'
p3527
F0.00014012468212601072
sS'RBR'
p3528
F0.00090967771630843782
sS'VBN'
p3529
F0.0108933189440273
sS'EX'
p3530
F0.00014834571440749375
sS'IN'
p3531
F0.065767615382746378
sS'WP$'
p3532
F6.2235404130399111e-05
sS'CD'
p3533
F0.01989436887847975
sS'MD'
p3534
F0.0059252712544300172
sS'NNPS'
p3535
F0.0020956881485768163
sS'JJS'
p3536
F0.00063713247077339043
sS'JJR'
p3537
F0.002095552443209932
sS'SYM'
p3538
F7.4289614661573734e-05
sS'UH'
p3539
F0.00013487197208552113
ssbs(S'POS'
g137
tp3540
(imultinomial
Multinomial
p3541
(dp3542
g6
g7
(g8
tRp3543
sg10
F0
sg11
g7
(g8
tRp3544
S'PRP$'
p3545
F0.0046141003082727288
sS'VBG'
p3546
F0.0092348360031023879
sS'FW'
p3547
F0.00027249285854296452
sS'``'
p3548
F0.0047233579185658164
sS','
F0.012910295118831466
sS"''"
p3549
F0.0054997654985187603
sS'VBP'
p3550
F0.0082629721807526493
sS'WDT'
p3551
F0.00059695622821282152
sS'JJ'
p3552
F0.093240769883887159
sS'WP'
p3553
F0.00033799760499753241
sS'VBZ'
p3554
F0.029029527144579875
sS'DT'
p3555
F0.020787331644211361
sS'#'
F0.00027249285854296452
sS'RP'
p3556
F0.0015027074078262923
sS'$'
F0.0042809685138276189
sS'NN'
p3557
F0.28202375937987056
sS')'
F0.00064189338861001162
sS'('
F0.00054691020235421558
sS'VBD'
p3558
F0.034647196854928827
sS'POS'
p3559
F0.0035568022606774249
sS'.'
F0.13868956634683854
sS'TO'
p3560
F0.010358539582121698
sS'PRP'
p3561
F0.0045789442899377489
sS'RB'
p3562
F0.02182136175025343
sS':'
F0.0024709693188167529
sS'NNS'
p3563
F0.091033979572558488
sS'NNP'
p3564
F0.077191535661556995
sS'VB'
p3565
F0.010555574906221249
sS'WRB'
p3566
F0.00070010695020763733
sS'CC'
p3567
F0.016780244509179129
sS'LS'
p3568
F0.00027249285854296452
sS'PDT'
p3569
F0.00027249285854296452
sS'RBS'
p3570
F0.0015112714643219134
sS'RBR'
p3571
F0.0017765611555232369
sS'VBN'
p3572
F0.011685394355189917
sS'EX'
p3573
F0.00027249285854296452
sS'IN'
p3574
F0.040326393320931138
sS'WP$'
p3575
F0.00027249285854296452
sS'CD'
p3576
F0.025781210179159374
sS'MD'
p3577
F0.0066113751743069969
sS'NNPS'
p3578
F0.0019423651582514126
sS'JJS'
p3579
F0.013838504367138606
sS'JJR'
p3580
F0.0037280115271149379
sS'SYM'
p3581
F0.00027249285854296452
sS'UH'
p3582
F0.00027249285854296452
ssbs(S'PDT'
g2
tp3583
(imultinomial
Multinomial
p3584
(dp3585
g6
g7
(g8
tRp3586
sg10
F0
sg11
g7
(g8
tRp3587
S'PRP$'
p3588
F0.0081485627950358581
sS'VBG'
p3589
F0.023530708209331959
sS'FW'
p3590
F0.0039788150190933833
sS'``'
p3591
F0.0076232763526922842
sS','
F0.024883874004696254
sS"''"
p3592
F0.0039788150190933833
sS'VBP'
p3593
F0.038860978587486147
sS'WDT'
p3594
F0.0039788150190933833
sS'JJ'
p3595
F0.032549652008154226
sS'WP'
p3596
F0.013342173552978055
sS'VBZ'
p3597
F0.031841364017823275
sS'DT'
p3598
F0.03680420487229507
sS'#'
F0.0039788150190933833
sS'RP'
p3599
F0.0039788150190933833
sS'$'
F0.0039788150190933833
sS'NN'
p3600
F0.050680271514091775
sS')'
F0.0039788150190933833
sS'('
F0.0039788150190933833
sS'VBD'
p3601
F0.048653059412249441
sS'POS'
p3602
F0.0039788150190933833
sS'.'
F0.0039788150190933833
sS'TO'
p3603
F0.018037078318607451
sS'PRP'
p3604
F0.04346787252167298
sS'RB'
p3605
F0.089161163946395505
sS':'
F0.006021827278885083
sS'NNS'
p3606
F0.039781045182949032
sS'NNP'
p3607
F0.025936022621898324
sS'VB'
p3608
F0.039504322179334042
sS'WRB'
p3609
F0.01839783192761477
sS'CC'
p3610
F0.051532003014696966
sS'LS'
p3611
F0.0039788150190933833
sS'PDT'
p3612
F0.0039788150190933833
sS'RBS'
p3613
F0.0039788150190933833
sS'RBR'
p3614
F0.0039788150190933833
sS'VBN'
p3615
F0.010844273255969797
sS'EX'
p3616
F0.0039788150190933833
sS'IN'
p3617
F0.20529620223937106
sS'WP$'
p3618
F0.0039788150190933833
sS'CD'
p3619
F0.010649772488200211
sS'MD'
p3620
F0.00612273812998967
sS'NNPS'
p3621
F0.0039788150190933833
sS'JJS'
p3622
F0.028570141639661796
sS'JJR'
p3623
F0.014162094565144953
sS'SYM'
p3624
F0.0039788150190933833
sS'UH'
p3625
F0.0039788150190933833
ssbs(S'EX'
g2
tp3626
(imultinomial
Multinomial
p3627
(dp3628
g6
g7
(g8
tRp3629
sg10
F0
sg11
g7
(g8
tRp3630
S'PRP$'
p3631
F0.0046208457092700743
sS'VBG'
p3632
F0.0023614236959195191
sS'FW'
p3633
F0.0023614236959195191
sS'``'
p3634
F0.17184032984694139
sS','
F0.12576811487620312
sS"''"
p3635
F0.0023614236959195191
sS'VBP'
p3636
F0.016645273818008288
sS'WDT'
p3637
F0.0023614236959195191
sS'JJ'
p3638
F0.012231476652899337
sS'WP'
p3639
F0.0023614236959195191
sS'VBZ'
p3640
F0.019221343683460939
sS'DT'
p3641
F0.022356303871475303
sS'#'
F0.0023614236959195191
sS'RP'
p3642
F0.0023614236959195191
sS'$'
F0.0023614236959195191
sS'NN'
p3643
F0.037406716150444816
sS')'
F0.0023614236959195191
sS'('
F0.0023614236959195191
sS'VBD'
p3644
F0.033472175547145967
sS'POS'
p3645
F0.0023614236959195191
sS'.'
F0.0023614236959195191
sS'TO'
p3646
F0.0039468245555045103
sS'PRP'
p3647
F0.012466763190930945
sS'RB'
p3648
F0.1167154707339126
sS':'
F0.0023614236959195191
sS'NNS'
p3649
F0.021343835269137315
sS'NNP'
p3650
F0.018868258549842247
sS'VB'
p3651
F0.011505889608547695
sS'WRB'
p3652
F0.0023614236959195191
sS'CC'
p3653
F0.17336107383021354
sS'LS'
p3654
F0.0023614236959195191
sS'PDT'
p3655
F0.0023614236959195191
sS'RBS'
p3656
F0.0023614236959195191
sS'RBR'
p3657
F0.0049358088026794913
sS'VBN'
p3658
F0.009214902989455832
sS'EX'
p3659
F0.0023614236959195191
sS'IN'
p3660
F0.10291502349332489
sS'WP$'
p3661
F0.0023614236959195191
sS'CD'
p3662
F0.0099669594519153568
sS'MD'
p3663
F0.0023614236959195191
sS'NNPS'
p3664
F0.0023614236959195191
sS'JJS'
p3665
F0.012855655218036144
sS'JJR'
p3666
F0.0040282091445014469
sS'SYM'
p3667
F0.0023614236959195191
sS'UH'
p3668
F0.0023614236959195191
ssbs(S'SYM'
g137
tp3669
(imultinomial
Multinomial
p3670
(dp3671
g6
g7
(g8
tRp3672
sg10
F0
sg11
g7
(g8
tRp3673
S'PRP$'
p3674
F0.0033196462774637745
sS'VBG'
p3675
F0.0082991156936594365
sS'FW'
p3676
F0.023237523942246416
sS'``'
p3677
F0.0033196462774637745
sS','
F0.022542618489133279
sS"''"
p3678
F0.0033196462774637745
sS'VBP'
p3679
F0.0055483738331766593
sS'WDT'
p3680
F0.0033196462774637745
sS'JJ'
p3681
F0.050882111798087291
sS'WP'
p3682
F0.0033196462774637745
sS'VBZ'
p3683
F0.044575663761574395
sS'DT'
p3684
F0.0085519250142741358
sS'#'
F0.0033196462774637745
sS'RP'
p3685
F0.0033196462774637745
sS'$'
F0.016316697513559922
sS'NN'
p3686
F0.12203673532523235
sS')'
F0.0033196462774637745
sS'('
F0.0033196462774637745
sS'VBD'
p3687
F0.0033196462774637745
sS'POS'
p3688
F0.010783413711811234
sS'.'
F0.070502213867989133
sS'TO'
p3689
F0.0033196462774637745
sS'PRP'
p3690
F0.0033196462774637745
sS'RB'
p3691
F0.033057468446086084
sS':'
F0.22884049945238555
sS'NNS'
p3692
F0.037547806189044179
sS'NNP'
p3693
F0.053301278163754753
sS'VB'
p3694
F0.0033196462774637745
sS'WRB'
p3695
F0.0033196462774637745
sS'CC'
p3696
F0.0066147511131822668
sS'LS'
p3697
F0.0033196462774637745
sS'PDT'
p3698
F0.0033196462774637745
sS'RBS'
p3699
F0.0033196462774637745
sS'RBR'
p3700
F0.0033196462774637745
sS'VBN'
p3701
F0.054251980380879493
sS'EX'
p3702
F0.0033196462774637745
sS'IN'
p3703
F0.078841476128974811
sS'WP$'
p3704
F0.0033196462774637745
sS'CD'
p3705
F0.036187065946244192
sS'MD'
p3706
F0.0033196462774637745
sS'NNPS'
p3707
F0.0033196462774637745
sS'JJS'
p3708
F0.0033196462774637745
sS'JJR'
p3709
F0.0050901242921111232
sS'SYM'
p3710
F0.0033196462774637745
sS'UH'
p3711
F0.0033196462774637745
ssbs(S'VBN'
g2
tp3712
(imultinomial
Multinomial
p3713
(dp3714
g6
g7
(g8
tRp3715
sg10
F0
sg11
g7
(g8
tRp3716
S'PRP$'
p3717
F0.0045853131927802169
sS'VBG'
p3718
F0.013303316219595417
sS'FW'
p3719
F0.00046336638062607823
sS'``'
p3720
F0.007275457207387882
sS','
F0.02341549686917541
sS"''"
p3721
F0.00069829095833100999
sS'VBP'
p3722
F0.074805391788941744
sS'WDT'
p3723
F0.0020053394823383078
sS'JJ'
p3724
F0.034489164748307211
sS'WP'
p3725
F0.0014322463658315114
sS'VBZ'
p3726
F0.098232429399291429
sS'DT'
p3727
F0.078958765601625625
sS'#'
F9.1829554656379681e-05
sS'RP'
p3728
F0.00067653079548695056
sS'$'
F0.0020777436524329809
sS'NN'
p3729
F0.10541557762851395
sS')'
F9.1829554656379681e-05
sS'('
F0.00090645261175284887
sS'VBD'
p3730
F0.090623865298698619
sS'POS'
p3731
F0.0040869974378718137
sS'.'
F0.00015068005793613626
sS'TO'
p3732
F0.0086749461252494664
sS'PRP'
p3733
F0.02709191192021455
sS'RB'
p3734
F0.099445940418022349
sS':'
F0.0029718753276228964
sS'NNS'
p3735
F0.082955007111661885
sS'NNP'
p3736
F0.05607392411439855
sS'VB'
p3737
F0.054041247234743829
sS'WRB'
p3738
F0.0013738070256822251
sS'CC'
p3739
F0.01770404364451636
sS'LS'
p3740
F0.00054033724062538247
sS'PDT'
p3741
F0.00082189138050308308
sS'RBS'
p3742
F0.001374642807676662
sS'RBR'
p3743
F0.0012927219937490736
sS'VBN'
p3744
F0.023186869362034412
sS'EX'
p3745
F0.0011476824944474087
sS'IN'
p3746
F0.035750777964740119
sS'WP$'
p3747
F0.00014866289007808579
sS'CD'
p3748
F0.015129323321714776
sS'MD'
p3749
F0.018211113810814517
sS'NNPS'
p3750
F0.00242033212321746
sS'JJS'
p3751
F0.0022333919591079701
sS'JJR'
p3752
F0.0015335016060837776
sS'SYM'
p3753
F0.0018316430783916545
sS'UH'
p3754
F0.00025832023846601661
ssbs(S'RB'
g137
tp3755
(imultinomial
Multinomial
p3756
(dp3757
g6
g7
(g8
tRp3758
sg10
F0
sg11
g7
(g8
tRp3759
S'PRP$'
p3760
F0.0063112764693291114
sS'VBG'
p3761
F0.020015431884396789
sS'FW'
p3762
F4.2534732311277566e-05
sS'``'
p3763
F0.0014015950058663303
sS','
F0.055574945333636688
sS"''"
p3764
F0.013990996881337493
sS'VBP'
p3765
F0.019756675562013236
sS'WDT'
p3766
F0.0006836884442109393
sS'JJ'
p3767
F0.079521499689841471
sS'WP'
p3768
F0.002654746069057393
sS'VBZ'
p3769
F0.032377762137052367
sS'DT'
p3770
F0.065429940528974342
sS'#'
F0.00016492706766432002
sS'RP'
p3771
F0.0031437889896041749
sS'$'
F0.0050253461739047395
sS'NN'
p3772
F0.078901938909266611
sS')'
F0.00077715517712553751
sS'('
F0.00022959897724148621
sS'VBD'
p3773
F0.031013284669828708
sS'POS'
p3774
F0.0029598439325893115
sS'.'
F0.17613740647062454
sS'TO'
p3775
F0.020356577632694602
sS'PRP'
p3776
F0.019901015889344262
sS'RB'
p3777
F0.051530384174138827
sS':'
F0.0039739950002619616
sS'NNS'
p3778
F0.036593477921498842
sS'NNP'
p3779
F0.026042699323920969
sS'VB'
p3780
F0.064083682782041726
sS'WRB'
p3781
F0.0020405666410494858
sS'CC'
p3782
F0.0092213051319880307
sS'LS'
p3783
F4.2534732311277566e-05
sS'PDT'
p3784
F0.00080912148087494793
sS'RBS'
p3785
F0.00051403490071991827
sS'RBR'
p3786
F0.0038942683307454447
sS'VBN'
p3787
F0.045606965688706862
sS'EX'
p3788
F0.0016926214413014447
sS'IN'
p3789
F0.07258202373898516
sS'WP$'
p3790
F4.2534732311277566e-05
sS'CD'
p3791
F0.027117970121312555
sS'MD'
p3792
F0.0088885646697601517
sS'NNPS'
p3793
F0.00090195582255221359
sS'JJS'
p3794
F0.0012095235719358295
sS'JJR'
p3795
F0.0067405075471972525
sS'SYM'
p3796
F4.2534732311277566e-05
sS'UH'
p3797
F5.6750886158629688e-05
ssbs(S'RBR'
g137
tp3798
(imultinomial
Multinomial
p3799
(dp3800
g6
g7
(g8
tRp3801
sg10
F0
sg11
g7
(g8
tRp3802
S'PRP$'
p3803
F0.0046948886644538716
sS'VBG'
p3804
F0.0056059337487130104
sS'FW'
p3805
F0.0010929063260890445
sS'``'
p3806
F0.0014372261153892533
sS','
F0.045527714617931099
sS"''"
p3807
F0.014094686118807202
sS'VBP'
p3808
F0.0079365441328201978
sS'WDT'
p3809
F0.0016049687069277551
sS'JJ'
p3810
F0.18363642904887256
sS'WP'
p3811
F0.0010929063260890445
sS'VBZ'
p3812
F0.0079263885127849112
sS'DT'
p3813
F0.066929975656553981
sS'#'
F0.0010929063260890445
sS'RP'
p3814
F0.0010929063260890445
sS'$'
F0.0025001631881362476
sS'NN'
p3815
F0.083697588248595883
sS')'
F0.0010929063260890445
sS'('
F0.0010929063260890445
sS'VBD'
p3816
F0.013538312560274483
sS'POS'
p3817
F0.0038108849647378725
sS'.'
F0.21431625397828424
sS'TO'
p3818
F0.020621354408701043
sS'PRP'
p3819
F0.011608807073242135
sS'RB'
p3820
F0.042165872653350617
sS':'
F0.0022152611037246236
sS'NNS'
p3821
F0.030288485135829372
sS'NNP'
p3822
F0.024131533699763889
sS'VB'
p3823
F0.011027558668133418
sS'WRB'
p3824
F0.0021435172253029887
sS'CC'
p3825
F0.0074941639942868836
sS'LS'
p3826
F0.0010929063260890445
sS'PDT'
p3827
F0.0010929063260890445
sS'RBS'
p3828
F0.0010929063260890445
sS'RBR'
p3829
F0.0014362276850698971
sS'VBN'
p3830
F0.014782304417445137
sS'EX'
p3831
F0.0018795235648395954
sS'IN'
p3832
F0.13810335904679352
sS'WP$'
p3833
F0.0010929063260890445
sS'CD'
p3834
F0.011584018433326565
sS'MD'
p3835
F0.003779804047886394
sS'NNPS'
p3836
F0.003155424111885153
sS'JJS'
p3837
F0.0014462329796708293
sS'JJR'
p3838
F0.0017637175743967673
sS'SYM'
p3839
F0.0010929063260890445
sS'UH'
p3840
F0.0010929063260890445
ssbs(S'('
g137
tp3841
(imultinomial
Multinomial
p3842
(dp3843
g6
g7
(g8
tRp3844
sg10
F0
sg11
g7
(g8
tRp3845
S'PRP$'
p3846
F0.0091611613421485882
sS'VBG'
p3847
F0.0079549840106252229
sS'FW'
p3848
F0.0015208331326980462
sS'``'
p3849
F0.0077391382814555537
sS','
F0.016679790366732398
sS"''"
p3850
F0.0052592042107718912
sS'VBP'
p3851
F0.0098777298957260975
sS'WDT'
p3852
F0.0015208331326980462
sS'JJ'
p3853
F0.022469767206839571
sS'WP'
p3854
F0.0033397697698119883
sS'VBZ'
p3855
F0.023846738010723449
sS'DT'
p3856
F0.069592610925378939
sS'#'
F0.0015208331326980462
sS'RP'
p3857
F0.0020291329765142379
sS'$'
F0.020406307403674214
sS'NN'
p3858
F0.072002979384179128
sS')'
F0.10897167177850982
sS'('
F0.0015208331326980462
sS'VBD'
p3859
F0.016563351226459414
sS'POS'
p3860
F0.0030524071742589866
sS'.'
F0.07188446133550376
sS'TO'
p3861
F0.0038596549209506488
sS'PRP'
p3862
F0.023717687889631241
sS'RB'
p3863
F0.027888980750962408
sS':'
F0.052481797190211996
sS'NNS'
p3864
F0.020162996488375887
sS'NNP'
p3865
F0.24598181033988573
sS'VB'
p3866
F0.0118241696364338
sS'WRB'
p3867
F0.0055874187451416188
sS'CC'
p3868
F0.012102889519507455
sS'LS'
p3869
F0.0015208331326980462
sS'PDT'
p3870
F0.0015208331326980462
sS'RBS'
p3871
F0.0015208331326980462
sS'RBR'
p3872
F0.0021263406838717882
sS'VBN'
p3873
F0.011252339856429844
sS'EX'
p3874
F0.0015208331326980462
sS'IN'
p3875
F0.044483209024127342
sS'WP$'
p3876
F0.0015208331326980462
sS'CD'
p3877
F0.024042899375393282
sS'MD'
p3878
F0.0043602131039515643
sS'NNPS'
p3879
F0.0053780186141785986
sS'JJS'
p3880
F0.0015208331326980462
sS'JJR'
p3881
F0.0031003152731199296
sS'SYM'
p3882
F0.0015208331326980462
sS'UH'
p3883
F0.014088888828835685
ssbs(S'LS'
g2
tp3884
(imultinomial
Multinomial
p3885
(dp3886
g6
g7
(g8
tRp3887
sg10
F0
sg11
g7
(g8
tRp3888
S'PRP$'
p3889
F0.022222222222222202
sS'VBG'
p3890
F0.022222222222222202
sS'FW'
p3891
F0.022222222222222202
sS'``'
p3892
F0.022222222222222202
sS','
F0.022222222222222202
sS"''"
p3893
F0.022222222222222202
sS'VBP'
p3894
F0.022222222222222202
sS'WDT'
p3895
F0.022222222222222202
sS'JJ'
p3896
F0.022222222222222202
sS'WP'
p3897
F0.022222222222222202
sS'VBZ'
p3898
F0.022222222222222202
sS'DT'
p3899
F0.022222222222222202
sS'#'
F0.022222222222222202
sS'RP'
p3900
F0.022222222222222202
sS'$'
F0.022222222222222202
sS'NN'
p3901
F0.022222222222222202
sS')'
F0.022222222222222202
sS'('
F0.022222222222222202
sS'VBD'
p3902
F0.022222222222222202
sS'POS'
p3903
F0.022222222222222202
sS'.'
F0.022222222222222202
sS'TO'
p3904
F0.022222222222222202
sS'PRP'
p3905
F0.022222222222222202
sS'RB'
p3906
F0.022222222222222202
sS':'
F0.022222222222222202
sS'NNS'
p3907
F0.022222222222222202
sS'NNP'
p3908
F0.022222222222222202
sS'VB'
p3909
F0.022222222222222202
sS'WRB'
p3910
F0.022222222222222202
sS'CC'
p3911
F0.022222222222222202
sS'LS'
p3912
F0.022222222222222202
sS'PDT'
p3913
F0.022222222222222202
sS'RBS'
p3914
F0.022222222222222202
sS'RBR'
p3915
F0.022222222222222202
sS'VBN'
p3916
F0.022222222222222202
sS'EX'
p3917
F0.022222222222222202
sS'IN'
p3918
F0.022222222222222202
sS'WP$'
p3919
F0.022222222222222202
sS'CD'
p3920
F0.022222222222222202
sS'MD'
p3921
F0.022222222222222202
sS'NNPS'
p3922
F0.022222222222222202
sS'JJS'
p3923
F0.022222222222222202
sS'JJR'
p3924
F0.022222222222222202
sS'SYM'
p3925
F0.022222222222222202
sS'UH'
p3926
F0.022222222222222202
ssbs.(dp1
(S'RB'
S'right'
p2
I01
tp3
(imultinomial
Multinomial
p4
(dp5
S'counts'
p6
ccollections
defaultdict
p7
(c__builtin__
float
p8
tRp9
sS'total'
p10
F0
sS'prob'
p11
g7
(g8
tRp12
I00
F0.70362025461135802
sI01
F0.29637974538864204
ssbs(S'CD'
g2
I00
tp13
(imultinomial
Multinomial
p14
(dp15
g6
g7
(g8
tRp16
sg10
F0
sg11
g7
(g8
tRp17
I00
F0.65740860894580655
sI01
F0.34259139105419356
ssbs(S'('
S'left'
p18
I00
tp19
(imultinomial
Multinomial
p20
(dp21
g6
g7
(g8
tRp22
sg10
F0
sg11
g7
(g8
tRp23
I00
F0.62220740418338072
sI01
F0.37779259581661923
ssbs(S'RBS'
g18
I00
tp24
(imultinomial
Multinomial
p25
(dp26
g6
g7
(g8
tRp27
sg10
F0
sg11
g7
(g8
tRp28
I00
F0.64938655692420932
sI01
F0.35061344307579073
ssbs(S'JJR'
g2
I01
tp29
(imultinomial
Multinomial
p30
(dp31
g6
g7
(g8
tRp32
sg10
F0
sg11
g7
(g8
tRp33
I00
F0.70344248259387931
sI01
F0.29655751740612069
ssbs(S'PRP$'
g18
I00
tp34
(imultinomial
Multinomial
p35
(dp36
g6
g7
(g8
tRp37
sg10
F0
sg11
g7
(g8
tRp38
I00
F0.59567957088770795
sI01
F0.40432042911229205
ssbs(S'VBZ'
g2
I01
tp39
(imultinomial
Multinomial
p40
(dp41
g6
g7
(g8
tRp42
sg10
F0
sg11
g7
(g8
tRp43
I00
F0.70278440264073827
sI01
F0.29721559735926173
ssbs(S'NNP'
g18
I01
tp44
(imultinomial
Multinomial
p45
(dp46
g6
g7
(g8
tRp47
sg10
F0
sg11
g7
(g8
tRp48
I00
F0.76467476980622351
sI01
F0.23532523019377649
ssbs(S'PRP$'
g2
I01
tp49
(imultinomial
Multinomial
p50
(dp51
g6
g7
(g8
tRp52
sg10
F0
sg11
g7
(g8
tRp53
I00
F0.70274221193053843
sI01
F0.29725778806946146
ssbs(S'POS'
g2
I00
tp54
(imultinomial
Multinomial
p55
(dp56
g6
g7
(g8
tRp57
sg10
F0
sg11
g7
(g8
tRp58
I00
F0.5952040479462376
sI01
F0.40479595205376245
ssbs(S'MD'
g18
I01
tp59
(imultinomial
Multinomial
p60
(dp61
g6
g7
(g8
tRp62
sg10
F0
sg11
g7
(g8
tRp63
I00
F0.70551592492792581
sI01
F0.29448407507207414
ssbs(S'VBG'
g2
I01
tp64
(imultinomial
Multinomial
p65
(dp66
g6
g7
(g8
tRp67
sg10
F0
sg11
g7
(g8
tRp68
I00
F0.70276592620819478
sI01
F0.29723407379180522
ssbs(S'PDT'
g2
I01
tp69
(imultinomial
Multinomial
p70
(dp71
g6
g7
(g8
tRp72
sg10
F0
sg11
g7
(g8
tRp73
I00
F0.70207465351163667
sI01
F0.29792534648836333
ssbs(S'#'
g18
I00
tp74
(imultinomial
Multinomial
p75
(dp76
g6
g7
(g8
tRp77
sg10
F0
sg11
g7
(g8
tRp78
I00
F0.55855738948807243
sI01
F0.44144261051192757
ssbs(S','
g18
I01
tp79
(imultinomial
Multinomial
p80
(dp81
g6
g7
(g8
tRp82
sg10
F0
sg11
g7
(g8
tRp83
I00
F0.70278268870351046
sI01
F0.29721731129648954
ssbs(S'RB'
g18
I01
tp84
(imultinomial
Multinomial
p85
(dp86
g6
g7
(g8
tRp87
sg10
F0
sg11
g7
(g8
tRp88
I00
F0.73615752775885213
sI01
F0.26384247224114787
ssbs(S'TO'
g18
I00
tp89
(imultinomial
Multinomial
p90
(dp91
g6
g7
(g8
tRp92
sg10
F0
sg11
g7
(g8
tRp93
I00
F0.59883806034735532
sI01
F0.40116193965264468
ssbs(S'WP$'
g18
I00
tp94
(imultinomial
Multinomial
p95
(dp96
g6
g7
(g8
tRp97
sg10
F0
sg11
g7
(g8
tRp98
I00
F0.56619210636863582
sI01
F0.43380789363136424
ssbs(S'VBN'
g2
I00
tp99
(imultinomial
Multinomial
p100
(dp101
g6
g7
(g8
tRp102
sg10
F0
sg11
g7
(g8
tRp103
I00
F0.61904063308497981
sI01
F0.38095936691502019
ssbs(S'NNS'
g18
I00
tp104
(imultinomial
Multinomial
p105
(dp106
g6
g7
(g8
tRp107
sg10
F0
sg11
g7
(g8
tRp108
I00
F0.60285983858442282
sI01
F0.39714016141557723
ssbs(S')'
g18
I00
tp109
(imultinomial
Multinomial
p110
(dp111
g6
g7
(g8
tRp112
sg10
F0
sg11
g7
(g8
tRp113
I00
F0.49852135736145592
sI01
F0.50147864263854414
ssbs(S'PDT'
g18
I00
tp114
(imultinomial
Multinomial
p115
(dp116
g6
g7
(g8
tRp117
sg10
F0
sg11
g7
(g8
tRp118
I00
F0.66103271280426223
sI01
F0.33896728719573782
ssbs(S'NN'
g2
I00
tp119
(imultinomial
Multinomial
p120
(dp121
g6
g7
(g8
tRp122
sg10
F0
sg11
g7
(g8
tRp123
I00
F0.63043114369238606
sI01
F0.36956885630761399
ssbs(S'NNP'
g2
I01
tp124
(imultinomial
Multinomial
p125
(dp126
g6
g7
(g8
tRp127
sg10
F0
sg11
g7
(g8
tRp128
I00
F0.70684169603083247
sI01
F0.29315830396916753
ssbs(S'RP'
g18
I01
tp129
(imultinomial
Multinomial
p130
(dp131
g6
g7
(g8
tRp132
sg10
F0
sg11
g7
(g8
tRp133
I00
F0.70264624037654477
sI01
F0.29735375962345523
ssbs(S'``'
g18
I00
tp134
(imultinomial
Multinomial
p135
(dp136
g6
g7
(g8
tRp137
sg10
F0
sg11
g7
(g8
tRp138
I00
F0.6181571787681811
sI01
F0.38184282123181901
ssbs(S"''"
g18
I01
tp139
(imultinomial
Multinomial
p140
(dp141
g6
g7
(g8
tRp142
sg10
F0
sg11
g7
(g8
tRp143
I00
F0.70371027877593595
sI01
F0.296289721224064
ssbs(S'$'
g2
I01
tp144
(imultinomial
Multinomial
p145
(dp146
g6
g7
(g8
tRp147
sg10
F0
sg11
g7
(g8
tRp148
I00
F0.70274610183736241
sI01
F0.2972538981626377
ssbs(S'RBR'
g18
I00
tp149
(imultinomial
Multinomial
p150
(dp151
g6
g7
(g8
tRp152
sg10
F0
sg11
g7
(g8
tRp153
I00
F0.58260266612268052
sI01
F0.41739733387731942
ssbs(S'LS'
g18
I01
tp154
(imultinomial
Multinomial
p155
(dp156
g6
g7
(g8
tRp157
sg10
F0
sg11
g7
(g8
tRp158
I00
F0.99382716049382724
sI01
F0.0061728395061728426
ssbs(S'VB'
g2
I01
tp159
(imultinomial
Multinomial
p160
(dp161
g6
g7
(g8
tRp162
sg10
F0
sg11
g7
(g8
tRp163
I00
F0.70319837073742808
sI01
F0.29680162926257186
ssbs(S'CC'
g2
I00
tp164
(imultinomial
Multinomial
p165
(dp166
g6
g7
(g8
tRp167
sg10
F0
sg11
g7
(g8
tRp168
I00
F0.55288335055904936
sI01
F0.44711664944095059
ssbs(S'WP$'
g2
I00
tp169
(imultinomial
Multinomial
p170
(dp171
g6
g7
(g8
tRp172
sg10
F0
sg11
g7
(g8
tRp173
I00
F0.59401227864417561
sI01
F0.40598772135582439
ssbs(S'SYM'
g2
I00
tp174
(imultinomial
Multinomial
p175
(dp176
g6
g7
(g8
tRp177
sg10
F0
sg11
g7
(g8
tRp178
I00
F0.48724844029631481
sI01
F0.51275155970368524
ssbs(S'POS'
g18
I00
tp179
(imultinomial
Multinomial
p180
(dp181
g6
g7
(g8
tRp182
sg10
F0
sg11
g7
(g8
tRp183
I00
F0.63277609909785482
sI01
F0.36722390090214513
ssbs(S'WP'
g18
I00
tp184
(imultinomial
Multinomial
p185
(dp186
g6
g7
(g8
tRp187
sg10
F0
sg11
g7
(g8
tRp188
I00
F0.66819967773796329
sI01
F0.33180032226203671
ssbs(S'CC'
g18
I01
tp189
(imultinomial
Multinomial
p190
(dp191
g6
g7
(g8
tRp192
sg10
F0
sg11
g7
(g8
tRp193
I00
F0.79442548659776557
sI01
F0.20557451340223437
ssbs(S'JJR'
g18
I01
tp194
(imultinomial
Multinomial
p195
(dp196
g6
g7
(g8
tRp197
sg10
F0
sg11
g7
(g8
tRp198
I00
F0.71990391343108839
sI01
F0.2800960865689115
ssbs(S'LS'
g2
I00
tp199
(imultinomial
Multinomial
p200
(dp201
g6
g7
(g8
tRp202
sg10
F0
sg11
g7
(g8
tRp203
I00
F0.46866657599696299
sI01
F0.53133342400303696
ssbs(S"''"
g2
I00
tp204
(imultinomial
Multinomial
p205
(dp206
g6
g7
(g8
tRp207
sg10
F0
sg11
g7
(g8
tRp208
I00
F0.65857955819641978
sI01
F0.34142044180358011
ssbs(S':'
g2
I01
tp209
(imultinomial
Multinomial
p210
(dp211
g6
g7
(g8
tRp212
sg10
F0
sg11
g7
(g8
tRp213
I00
F0.80807389347240399
sI01
F0.19192610652759595
ssbs(S'CD'
g18
I01
tp214
(imultinomial
Multinomial
p215
(dp216
g6
g7
(g8
tRp217
sg10
F0
sg11
g7
(g8
tRp218
I00
F0.70930333186492434
sI01
F0.29069666813507572
ssbs(S'RBR'
g2
I00
tp219
(imultinomial
Multinomial
p220
(dp221
g6
g7
(g8
tRp222
sg10
F0
sg11
g7
(g8
tRp223
I00
F0.62146321908345137
sI01
F0.37853678091654863
ssbs(S')'
g2
I00
tp224
(imultinomial
Multinomial
p225
(dp226
g6
g7
(g8
tRp227
sg10
F0
sg11
g7
(g8
tRp228
I00
F0.76863518989034985
sI01
F0.23136481010965027
ssbs(S'RBS'
g2
I00
tp229
(imultinomial
Multinomial
p230
(dp231
g6
g7
(g8
tRp232
sg10
F0
sg11
g7
(g8
tRp233
I00
F0.56000595111715179
sI01
F0.43999404888284832
ssbs(S'VBD'
g18
I00
tp234
(imultinomial
Multinomial
p235
(dp236
g6
g7
(g8
tRp237
sg10
F0
sg11
g7
(g8
tRp238
I00
F0.66933938838785001
sI01
F0.33066061161214994
ssbs(S'WP$'
g2
I01
tp239
(imultinomial
Multinomial
p240
(dp241
g6
g7
(g8
tRp242
sg10
F0
sg11
g7
(g8
tRp243
I00
F0.68436031700249966
sI01
F0.31563968299750034
ssbs(S'$'
g18
I01
tp244
(imultinomial
Multinomial
p245
(dp246
g6
g7
(g8
tRp247
sg10
F0
sg11
g7
(g8
tRp248
I00
F0.70569162860938661
sI01
F0.29430837139061333
ssbs(S'JJ'
g18
I00
tp249
(imultinomial
Multinomial
p250
(dp251
g6
g7
(g8
tRp252
sg10
F0
sg11
g7
(g8
tRp253
I00
F0.5994014545532077
sI01
F0.4005985454467923
ssbs(S'DT'
g18
I01
tp254
(imultinomial
Multinomial
p255
(dp256
g6
g7
(g8
tRp257
sg10
F0
sg11
g7
(g8
tRp258
I00
F0.77789169402655378
sI01
F0.22210830597344622
ssbs(S'VBN'
g18
I01
tp259
(imultinomial
Multinomial
p260
(dp261
g6
g7
(g8
tRp262
sg10
F0
sg11
g7
(g8
tRp263
I00
F0.70943536998001966
sI01
F0.2905646300199804
ssbs(S','
g2
I01
tp264
(imultinomial
Multinomial
p265
(dp266
g6
g7
(g8
tRp267
sg10
F0
sg11
g7
(g8
tRp268
I00
F0.70308297529716934
sI01
F0.29691702470283071
ssbs(S'IN'
g18
I00
tp269
(imultinomial
Multinomial
p270
(dp271
g6
g7
(g8
tRp272
sg10
F0
sg11
g7
(g8
tRp273
I00
F0.59778385572739479
sI01
F0.40221614427260532
ssbs(S'JJ'
g2
I00
tp274
(imultinomial
Multinomial
p275
(dp276
g6
g7
(g8
tRp277
sg10
F0
sg11
g7
(g8
tRp278
I00
F0.61189898596493764
sI01
F0.38810101403506231
ssbs(S'JJS'
g2
I01
tp279
(imultinomial
Multinomial
p280
(dp281
g6
g7
(g8
tRp282
sg10
F0
sg11
g7
(g8
tRp283
I00
F0.7026216748451245
sI01
F0.2973783251548755
ssbs(S'UH'
g18
I01
tp284
(imultinomial
Multinomial
p285
(dp286
g6
g7
(g8
tRp287
sg10
F0
sg11
g7
(g8
tRp288
I00
F0.81065739185513053
sI01
F0.18934260814486933
ssbs(S'WP'
g2
I00
tp289
(imultinomial
Multinomial
p290
(dp291
g6
g7
(g8
tRp292
sg10
F0
sg11
g7
(g8
tRp293
I00
F0.53787242226009357
sI01
F0.46212757773990648
ssbs(S'DT'
g2
I00
tp294
(imultinomial
Multinomial
p295
(dp296
g6
g7
(g8
tRp297
sg10
F0
sg11
g7
(g8
tRp298
I00
F0.55475103042169416
sI01
F0.44524896957830584
ssbs(S'MD'
g2
I01
tp299
(imultinomial
Multinomial
p300
(dp301
g6
g7
(g8
tRp302
sg10
F0
sg11
g7
(g8
tRp303
I00
F0.70276218489737508
sI01
F0.29723781510262498
ssbs(S'VBP'
g18
I00
tp304
(imultinomial
Multinomial
p305
(dp306
g6
g7
(g8
tRp307
sg10
F0
sg11
g7
(g8
tRp308
I00
F0.67158970468675305
sI01
F0.32841029531324678
ssbs(S'VBG'
g18
I01
tp309
(imultinomial
Multinomial
p310
(dp311
g6
g7
(g8
tRp312
sg10
F0
sg11
g7
(g8
tRp313
I00
F0.72059992868627742
sI01
F0.27940007131372258
ssbs(S'NNPS'
g2
I01
tp314
(imultinomial
Multinomial
p315
(dp316
g6
g7
(g8
tRp317
sg10
F0
sg11
g7
(g8
tRp318
I00
F0.72311324715459013
sI01
F0.27688675284540992
ssbs(S'POS'
g18
I01
tp319
(imultinomial
Multinomial
p320
(dp321
g6
g7
(g8
tRp322
sg10
F0
sg11
g7
(g8
tRp323
I00
F0.70274049732607591
sI01
F0.29725950267392409
ssbs(S'VBZ'
g18
I01
tp324
(imultinomial
Multinomial
p325
(dp326
g6
g7
(g8
tRp327
sg10
F0
sg11
g7
(g8
tRp328
I00
F0.70444759461017981
sI01
F0.29555240538982003
ssbs(S'NNPS'
g18
I00
tp329
(imultinomial
Multinomial
p330
(dp331
g6
g7
(g8
tRp332
sg10
F0
sg11
g7
(g8
tRp333
I00
F0.64223918315857076
sI01
F0.35776081684142907
ssbs(S'*'
g18
I01
tp334
(imultinomial
Multinomial
p335
(dp336
g6
g7
(g8
tRp337
sg10
F0
sg11
g7
(g8
tRp338
I00
F0.7219675800398806
sI01
F0.27803241996011935
ssbs(S'SYM'
g18
I00
tp339
(imultinomial
Multinomial
p340
(dp341
g6
g7
(g8
tRp342
sg10
F0
sg11
g7
(g8
tRp343
I00
F0.58717327047404066
sI01
F0.41282672952595928
ssbs(S'NNP'
g18
I00
tp344
(imultinomial
Multinomial
p345
(dp346
g6
g7
(g8
tRp347
sg10
F0
sg11
g7
(g8
tRp348
I00
F0.63277802130414607
sI01
F0.36722197869585393
ssbs(S'VBP'
g2
I00
tp349
(imultinomial
Multinomial
p350
(dp351
g6
g7
(g8
tRp352
sg10
F0
sg11
g7
(g8
tRp353
I00
F0.56641090055526278
sI01
F0.43358909944473734
ssbs(S'('
g2
I00
tp354
(imultinomial
Multinomial
p355
(dp356
g6
g7
(g8
tRp357
sg10
F0
sg11
g7
(g8
tRp358
I00
F0.5336138253744569
sI01
F0.46638617462554305
ssbs(S'WDT'
g2
I00
tp359
(imultinomial
Multinomial
p360
(dp361
g6
g7
(g8
tRp362
sg10
F0
sg11
g7
(g8
tRp363
I00
F0.57475785174909699
sI01
F0.42524214825090306
ssbs(S'EX'
g2
I01
tp364
(imultinomial
Multinomial
p365
(dp366
g6
g7
(g8
tRp367
sg10
F0
sg11
g7
(g8
tRp368
I00
F0.70252809956425377
sI01
F0.29747190043574612
ssbs(S'.'
g18
I00
tp369
(imultinomial
Multinomial
p370
(dp371
g6
g7
(g8
tRp372
sg10
F0
sg11
g7
(g8
tRp373
I00
F0.46305874657122859
sI01
F0.53694125342877141
ssbs(S'IN'
g2
I01
tp374
(imultinomial
Multinomial
p375
(dp376
g6
g7
(g8
tRp377
sg10
F0
sg11
g7
(g8
tRp378
I00
F0.70317665503149485
sI01
F0.29682334496850521
ssbs(S'VB'
g18
I01
tp379
(imultinomial
Multinomial
p380
(dp381
g6
g7
(g8
tRp382
sg10
F0
sg11
g7
(g8
tRp383
I00
F0.7091295408669509
sI01
F0.29087045913304915
ssbs(S'``'
g2
I01
tp384
(imultinomial
Multinomial
p385
(dp386
g6
g7
(g8
tRp387
sg10
F0
sg11
g7
(g8
tRp388
I00
F0.70340019522788477
sI01
F0.29659980477211528
ssbs(S'NN'
g18
I00
tp389
(imultinomial
Multinomial
p390
(dp391
g6
g7
(g8
tRp392
sg10
F0
sg11
g7
(g8
tRp393
I00
F0.59855588969394147
sI01
F0.40144411030605864
ssbs(S'PRP'
g18
I00
tp394
(imultinomial
Multinomial
p395
(dp396
g6
g7
(g8
tRp397
sg10
F0
sg11
g7
(g8
tRp398
I00
F0.66025266281854855
sI01
F0.33974733718145139
ssbs(S'*'
g2
I00
tp399
(imultinomial
Multinomial
p400
(dp401
g6
g7
(g8
tRp402
sg10
F0
sg11
g7
(g8
tRp403
I00
F0.7219675800398806
sI01
F0.27803241996011935
ssbs(S'VB'
g18
I00
tp404
(imultinomial
Multinomial
p405
(dp406
g6
g7
(g8
tRp407
sg10
F0
sg11
g7
(g8
tRp408
I00
F0.59497460858316753
sI01
F0.40502539141683247
ssbs(S'WRB'
g18
I01
tp409
(imultinomial
Multinomial
p410
(dp411
g6
g7
(g8
tRp412
sg10
F0
sg11
g7
(g8
tRp413
I00
F0.77400709550208513
sI01
F0.2259929044979149
ssbs(S'PRP'
g2
I01
tp414
(imultinomial
Multinomial
p415
(dp416
g6
g7
(g8
tRp417
sg10
F0
sg11
g7
(g8
tRp418
I00
F0.70278132229872581
sI01
F0.29721867770127408
ssbs(S'WDT'
g2
I01
tp419
(imultinomial
Multinomial
p420
(dp421
g6
g7
(g8
tRp422
sg10
F0
sg11
g7
(g8
tRp423
I00
F0.7025333184190885
sI01
F0.29746668158091161
ssbs(S':'
g18
I00
tp424
(imultinomial
Multinomial
p425
(dp426
g6
g7
(g8
tRp427
sg10
F0
sg11
g7
(g8
tRp428
I00
F0.6006308663394927
sI01
F0.3993691336605073
ssbs(S'RB'
g2
I00
tp429
(imultinomial
Multinomial
p430
(dp431
g6
g7
(g8
tRp432
sg10
F0
sg11
g7
(g8
tRp433
I00
F0.58603556545222502
sI01
F0.41396443454777504
ssbs(S'#'
g2
I01
tp434
(imultinomial
Multinomial
p435
(dp436
g6
g7
(g8
tRp437
sg10
F0
sg11
g7
(g8
tRp438
I00
F0.69716311679433984
sI01
F0.30283688320566016
ssbs(S'CD'
g2
I01
tp439
(imultinomial
Multinomial
p440
(dp441
g6
g7
(g8
tRp442
sg10
F0
sg11
g7
(g8
tRp443
I00
F0.70426507097091084
sI01
F0.2957349290290891
ssbs(S'WDT'
g18
I01
tp444
(imultinomial
Multinomial
p445
(dp446
g6
g7
(g8
tRp447
sg10
F0
sg11
g7
(g8
tRp448
I00
F0.72951678870547954
sI01
F0.27048321129452058
ssbs(S'*'
g2
I01
tp449
(imultinomial
Multinomial
p450
(dp451
g6
g7
(g8
tRp452
sg10
F0
sg11
g7
(g8
tRp453
I00
F0.27803241996011935
sI01
F0.7219675800398806
ssbs(S'EX'
g18
I00
tp454
(imultinomial
Multinomial
p455
(dp456
g6
g7
(g8
tRp457
sg10
F0
sg11
g7
(g8
tRp458
I00
F0.78377014417971858
sI01
F0.21622985582028131
ssbs(S'('
g18
I01
tp459
(imultinomial
Multinomial
p460
(dp461
g6
g7
(g8
tRp462
sg10
F0
sg11
g7
(g8
tRp463
I00
F0.81300315844364535
sI01
F0.18699684155635468
ssbs(S'VBD'
g18
I01
tp464
(imultinomial
Multinomial
p465
(dp466
g6
g7
(g8
tRp467
sg10
F0
sg11
g7
(g8
tRp468
I00
F0.7038258554361515
sI01
F0.29617414456384855
ssbs(S'RP'
g2
I01
tp469
(imultinomial
Multinomial
p470
(dp471
g6
g7
(g8
tRp472
sg10
F0
sg11
g7
(g8
tRp473
I00
F0.70374617987061305
sI01
F0.29625382012938695
ssbs(S'PRP$'
g2
I00
tp474
(imultinomial
Multinomial
p475
(dp476
g6
g7
(g8
tRp477
sg10
F0
sg11
g7
(g8
tRp478
I00
F0.59065030855509804
sI01
F0.40934969144490191
ssbs(S'RBS'
g18
I01
tp479
(imultinomial
Multinomial
p480
(dp481
g6
g7
(g8
tRp482
sg10
F0
sg11
g7
(g8
tRp483
I00
F0.72763241376710874
sI01
F0.27236758623289126
ssbs(S'POS'
g2
I01
tp484
(imultinomial
Multinomial
p485
(dp486
g6
g7
(g8
tRp487
sg10
F0
sg11
g7
(g8
tRp488
I00
F0.70274049732607591
sI01
F0.29725950267392409
ssbs(S'PRP$'
g18
I01
tp489
(imultinomial
Multinomial
p490
(dp491
g6
g7
(g8
tRp492
sg10
F0
sg11
g7
(g8
tRp493
I00
F0.74479184759192207
sI01
F0.25520815240807793
ssbs(S'VBZ'
g2
I00
tp494
(imultinomial
Multinomial
p495
(dp496
g6
g7
(g8
tRp497
sg10
F0
sg11
g7
(g8
tRp498
I00
F0.56704034016586169
sI01
F0.43295965983413842
ssbs(S'VBG'
g2
I00
tp499
(imultinomial
Multinomial
p500
(dp501
g6
g7
(g8
tRp502
sg10
F0
sg11
g7
(g8
tRp503
I00
F0.60460946307946284
sI01
F0.39539053692053711
ssbs(S'RBS'
g2
I01
tp504
(imultinomial
Multinomial
p505
(dp506
g6
g7
(g8
tRp507
sg10
F0
sg11
g7
(g8
tRp508
I00
F0.70209945403366791
sI01
F0.29790054596633203
ssbs(S'TO'
g18
I01
tp509
(imultinomial
Multinomial
p510
(dp511
g6
g7
(g8
tRp512
sg10
F0
sg11
g7
(g8
tRp513
I00
F0.70510364213904131
sI01
F0.2948963578609588
ssbs(S'MD'
g18
I00
tp514
(imultinomial
Multinomial
p515
(dp516
g6
g7
(g8
tRp517
sg10
F0
sg11
g7
(g8
tRp518
I00
F0.66728063329836174
sI01
F0.33271936670163832
ssbs(S'WRB'
g2
I00
tp519
(imultinomial
Multinomial
p520
(dp521
g6
g7
(g8
tRp522
sg10
F0
sg11
g7
(g8
tRp523
I00
F0.54019324823618675
sI01
F0.45980675176381325
ssbs(S'RB'
g18
I00
tp524
(imultinomial
Multinomial
p525
(dp526
g6
g7
(g8
tRp527
sg10
F0
sg11
g7
(g8
tRp528
I00
F0.61941192852026616
sI01
F0.38058807147973389
ssbs(S'JJS'
g18
I00
tp529
(imultinomial
Multinomial
p530
(dp531
g6
g7
(g8
tRp532
sg10
F0
sg11
g7
(g8
tRp533
I00
F0.64376649572943057
sI01
F0.35623350427056932
ssbs(S'PDT'
g2
I00
tp534
(imultinomial
Multinomial
p535
(dp536
g6
g7
(g8
tRp537
sg10
F0
sg11
g7
(g8
tRp538
I00
F0.54722245870708108
sI01
F0.45277754129291886
ssbs(S'FW'
g18
I00
tp539
(imultinomial
Multinomial
p540
(dp541
g6
g7
(g8
tRp542
sg10
F0
sg11
g7
(g8
tRp543
I00
F0.64153588501908254
sI01
F0.35846411498091746
ssbs(S'VBN'
g2
I01
tp544
(imultinomial
Multinomial
p545
(dp546
g6
g7
(g8
tRp547
sg10
F0
sg11
g7
(g8
tRp548
I00
F0.70331075392425679
sI01
F0.29668924607574321
ssbs(S'#'
g18
I01
tp549
(imultinomial
Multinomial
p550
(dp551
g6
g7
(g8
tRp552
sg10
F0
sg11
g7
(g8
tRp553
I00
F0.69716311679433984
sI01
F0.30283688320566016
ssbs(S','
g18
I00
tp554
(imultinomial
Multinomial
p555
(dp556
g6
g7
(g8
tRp557
sg10
F0
sg11
g7
(g8
tRp558
I00
F0.64494886055154355
sI01
F0.35505113944845634
ssbs(S'PDT'
g18
I01
tp559
(imultinomial
Multinomial
p560
(dp561
g6
g7
(g8
tRp562
sg10
F0
sg11
g7
(g8
tRp563
I00
F0.75495786548623633
sI01
F0.24504213451376367
ssbs(S'NNS'
g2
I01
tp564
(imultinomial
Multinomial
p565
(dp566
g6
g7
(g8
tRp567
sg10
F0
sg11
g7
(g8
tRp568
I00
F0.70528827076058032
sI01
F0.2947117292394198
ssbs(S'NNS'
g18
I01
tp569
(imultinomial
Multinomial
p570
(dp571
g6
g7
(g8
tRp572
sg10
F0
sg11
g7
(g8
tRp573
I00
F0.72703634992146693
sI01
F0.27296365007853307
ssbs(S'RP'
g18
I00
tp574
(imultinomial
Multinomial
p575
(dp576
g6
g7
(g8
tRp577
sg10
F0
sg11
g7
(g8
tRp578
I00
F0.58094355396117792
sI01
F0.41905644603882208
ssbs(S'JJS'
g18
I01
tp579
(imultinomial
Multinomial
p580
(dp581
g6
g7
(g8
tRp582
sg10
F0
sg11
g7
(g8
tRp583
I00
F0.74485991986152966
sI01
F0.25514008013847028
ssbs(S"''"
g18
I00
tp584
(imultinomial
Multinomial
p585
(dp586
g6
g7
(g8
tRp587
sg10
F0
sg11
g7
(g8
tRp588
I00
F0.48965549198780639
sI01
F0.51034450801219367
ssbs(S'UH'
g2
I01
tp589
(imultinomial
Multinomial
p590
(dp591
g6
g7
(g8
tRp592
sg10
F0
sg11
g7
(g8
tRp593
I00
F0.70173458771477704
sI01
F0.29826541228522291
ssbs(S'NN'
g2
I01
tp594
(imultinomial
Multinomial
p595
(dp596
g6
g7
(g8
tRp597
sg10
F0
sg11
g7
(g8
tRp598
I00
F0.70418191631239535
sI01
F0.2958180836876047
ssbs(S'WRB'
g2
I01
tp599
(imultinomial
Multinomial
p600
(dp601
g6
g7
(g8
tRp602
sg10
F0
sg11
g7
(g8
tRp603
I00
F0.70254629155268455
sI01
F0.2974537084473155
ssbs(S'RBR'
g18
I01
tp604
(imultinomial
Multinomial
p605
(dp606
g6
g7
(g8
tRp607
sg10
F0
sg11
g7
(g8
tRp608
I00
F0.72867285337352594
sI01
F0.27132714662647406
ssbs(S'NNP'
g2
I00
tp609
(imultinomial
Multinomial
p610
(dp611
g6
g7
(g8
tRp612
sg10
F0
sg11
g7
(g8
tRp613
I00
F0.5715564902941157
sI01
F0.42844350970588435
ssbs(S'VB'
g2
I00
tp614
(imultinomial
Multinomial
p615
(dp616
g6
g7
(g8
tRp617
sg10
F0
sg11
g7
(g8
tRp618
I00
F0.61582868453370954
sI01
F0.38417131546629046
ssbs(S'``'
g18
I01
tp619
(imultinomial
Multinomial
p620
(dp621
g6
g7
(g8
tRp622
sg10
F0
sg11
g7
(g8
tRp623
I00
F0.92568726979168081
sI01
F0.074312730208319189
ssbs(S'JJR'
g2
I00
tp624
(imultinomial
Multinomial
p625
(dp626
g6
g7
(g8
tRp627
sg10
F0
sg11
g7
(g8
tRp628
I00
F0.62006291911259348
sI01
F0.37993708088740646
ssbs(S'LS'
g18
I00
tp629
(imultinomial
Multinomial
p630
(dp631
g6
g7
(g8
tRp632
sg10
F0
sg11
g7
(g8
tRp633
I00
F0.5
sI01
F0.5
ssbs(S'CC'
g18
I00
tp634
(imultinomial
Multinomial
p635
(dp636
g6
g7
(g8
tRp637
sg10
F0
sg11
g7
(g8
tRp638
I00
F0.60822726017346607
sI01
F0.39177273982653388
ssbs(S'VBD'
g2
I01
tp639
(imultinomial
Multinomial
p640
(dp641
g6
g7
(g8
tRp642
sg10
F0
sg11
g7
(g8
tRp643
I00
F0.7030089946685063
sI01
F0.29699100533149375
ssbs(S'CC'
g2
I01
tp644
(imultinomial
Multinomial
p645
(dp646
g6
g7
(g8
tRp647
sg10
F0
sg11
g7
(g8
tRp648
I00
F0.70277543323774327
sI01
F0.29722456676225673
ssbs(S'SYM'
g2
I01
tp649
(imultinomial
Multinomial
p650
(dp651
g6
g7
(g8
tRp652
sg10
F0
sg11
g7
(g8
tRp653
I00
F0.72162492578574078
sI01
F0.27837507421425917
ssbs(S'LS'
g2
I01
tp654
(imultinomial
Multinomial
p655
(dp656
g6
g7
(g8
tRp657
sg10
F0
sg11
g7
(g8
tRp658
I00
F0.70029269007678974
sI01
F0.29970730992321032
ssbs(S'CD'
g18
I00
tp659
(imultinomial
Multinomial
p660
(dp661
g6
g7
(g8
tRp662
sg10
F0
sg11
g7
(g8
tRp663
I00
F0.57337111529823293
sI01
F0.42662888470176713
ssbs(S'RBR'
g2
I01
tp664
(imultinomial
Multinomial
p665
(dp666
g6
g7
(g8
tRp667
sg10
F0
sg11
g7
(g8
tRp668
I00
F0.70257374019703855
sI01
F0.29742625980296145
ssbs(S'JJR'
g18
I00
tp669
(imultinomial
Multinomial
p670
(dp671
g6
g7
(g8
tRp672
sg10
F0
sg11
g7
(g8
tRp673
I00
F0.59106988915169889
sI01
F0.40893011084830105
ssbs(S'RP'
g2
I00
tp674
(imultinomial
Multinomial
p675
(dp676
g6
g7
(g8
tRp677
sg10
F0
sg11
g7
(g8
tRp678
I00
F0.64318087437386595
sI01
F0.35681912562613416
ssbs(S"''"
g2
I01
tp679
(imultinomial
Multinomial
p680
(dp681
g6
g7
(g8
tRp682
sg10
F0
sg11
g7
(g8
tRp683
I00
F0.89010088483005345
sI01
F0.10989911516994648
ssbs(S':'
g2
I00
tp684
(imultinomial
Multinomial
p685
(dp686
g6
g7
(g8
tRp687
sg10
F0
sg11
g7
(g8
tRp688
I00
F0.56313345523466163
sI01
F0.43686654476533848
ssbs(S'FW'
g18
I01
tp689
(imultinomial
Multinomial
p690
(dp691
g6
g7
(g8
tRp692
sg10
F0
sg11
g7
(g8
tRp693
I00
F0.74712195725229136
sI01
F0.2528780427477087
ssbs(S'VBD'
g2
I00
tp694
(imultinomial
Multinomial
p695
(dp696
g6
g7
(g8
tRp697
sg10
F0
sg11
g7
(g8
tRp698
I00
F0.57281672659721283
sI01
F0.42718327340278711
ssbs(S'NNS'
g2
I00
tp699
(imultinomial
Multinomial
p700
(dp701
g6
g7
(g8
tRp702
sg10
F0
sg11
g7
(g8
tRp703
I00
F0.6209454144934522
sI01
F0.37905458550654775
ssbs(S')'
g2
I01
tp704
(imultinomial
Multinomial
p705
(dp706
g6
g7
(g8
tRp707
sg10
F0
sg11
g7
(g8
tRp708
I00
F0.82627912641566159
sI01
F0.17372087358433835
ssbs(S'DT'
g18
I00
tp709
(imultinomial
Multinomial
p710
(dp711
g6
g7
(g8
tRp712
sg10
F0
sg11
g7
(g8
tRp713
I00
F0.62208574388323612
sI01
F0.37791425611676388
ssbs(S'FW'
g2
I00
tp714
(imultinomial
Multinomial
p715
(dp716
g6
g7
(g8
tRp717
sg10
F0
sg11
g7
(g8
tRp718
I00
F0.59179936016863677
sI01
F0.40820063983136334
ssbs(S'IN'
g18
I01
tp719
(imultinomial
Multinomial
p720
(dp721
g6
g7
(g8
tRp722
sg10
F0
sg11
g7
(g8
tRp723
I00
F0.72388166537718135
sI01
F0.27611833462281865
ssbs(S'$'
g18
I00
tp724
(imultinomial
Multinomial
p725
(dp726
g6
g7
(g8
tRp727
sg10
F0
sg11
g7
(g8
tRp728
I00
F0.58226502701576976
sI01
F0.41773497298423024
ssbs(S'JJS'
g2
I00
tp729
(imultinomial
Multinomial
p730
(dp731
g6
g7
(g8
tRp732
sg10
F0
sg11
g7
(g8
tRp733
I00
F0.56548998508624404
sI01
F0.43451001491375602
ssbs(S'JJ'
g18
I01
tp734
(imultinomial
Multinomial
p735
(dp736
g6
g7
(g8
tRp737
sg10
F0
sg11
g7
(g8
tRp738
I00
F0.72617475458529779
sI01
F0.27382524541470221
ssbs(S'WP'
g2
I01
tp739
(imultinomial
Multinomial
p740
(dp741
g6
g7
(g8
tRp742
sg10
F0
sg11
g7
(g8
tRp743
I00
F0.70259869144280551
sI01
F0.2974013085571946
ssbs(S'VBN'
g18
I00
tp744
(imultinomial
Multinomial
p745
(dp746
g6
g7
(g8
tRp747
sg10
F0
sg11
g7
(g8
tRp748
I00
F0.59796616360422838
sI01
F0.40203383639577162
ssbs(S','
g2
I00
tp749
(imultinomial
Multinomial
p750
(dp751
g6
g7
(g8
tRp752
sg10
F0
sg11
g7
(g8
tRp753
I00
F0.5767364010417555
sI01
F0.42326359895824456
ssbs(S'JJ'
g2
I01
tp754
(imultinomial
Multinomial
p755
(dp756
g6
g7
(g8
tRp757
sg10
F0
sg11
g7
(g8
tRp758
I00
F0.70292894844787313
sI01
F0.29707105155212699
ssbs(S'UH'
g18
I00
tp759
(imultinomial
Multinomial
p760
(dp761
g6
g7
(g8
tRp762
sg10
F0
sg11
g7
(g8
tRp763
I00
F0.61443697333015135
sI01
F0.3855630266698486
ssbs(S'.'
g2
I00
tp764
(imultinomial
Multinomial
p765
(dp766
g6
g7
(g8
tRp767
sg10
F0
sg11
g7
(g8
tRp768
I00
F0.90004393173061437
sI01
F0.099956068269385676
ssbs(S'VBP'
g18
I01
tp769
(imultinomial
Multinomial
p770
(dp771
g6
g7
(g8
tRp772
sg10
F0
sg11
g7
(g8
tRp773
I00
F0.70404410997213895
sI01
F0.29595589002786094
ssbs(S'VBG'
g18
I00
tp774
(imultinomial
Multinomial
p775
(dp776
g6
g7
(g8
tRp777
sg10
F0
sg11
g7
(g8
tRp778
I00
F0.59874331758279675
sI01
F0.4012566824172033
ssbs(S'TO'
g2
I01
tp779
(imultinomial
Multinomial
p780
(dp781
g6
g7
(g8
tRp782
sg10
F0
sg11
g7
(g8
tRp783
I00
F0.70305131971502022
sI01
F0.29694868028497978
ssbs(S'$'
g2
I00
tp784
(imultinomial
Multinomial
p785
(dp786
g6
g7
(g8
tRp787
sg10
F0
sg11
g7
(g8
tRp788
I00
F0.62518222566729376
sI01
F0.37481777433270624
ssbs(S'MD'
g2
I00
tp789
(imultinomial
Multinomial
p790
(dp791
g6
g7
(g8
tRp792
sg10
F0
sg11
g7
(g8
tRp793
I00
F0.56338885131124594
sI01
F0.43661114868875411
ssbs(S'.'
g2
I01
tp794
(imultinomial
Multinomial
p795
(dp796
g6
g7
(g8
tRp797
sg10
F0
sg11
g7
(g8
tRp798
I00
F0.97777512792694832
sI01
F0.022224872073051728
ssbs(S'NNPS'
g18
I01
tp799
(imultinomial
Multinomial
p800
(dp801
g6
g7
(g8
tRp802
sg10
F0
sg11
g7
(g8
tRp803
I00
F0.73187744394907006
sI01
F0.26812255605092994
ssbs(S'NNPS'
g2
I00
tp804
(imultinomial
Multinomial
p805
(dp806
g6
g7
(g8
tRp807
sg10
F0
sg11
g7
(g8
tRp808
I00
F0.58104179310613591
sI01
F0.41895820689386415
ssbs(S'WP$'
g18
I01
tp809
(imultinomial
Multinomial
p810
(dp811
g6
g7
(g8
tRp812
sg10
F0
sg11
g7
(g8
tRp813
I00
F0.68436031700249966
sI01
F0.31563968299750034
ssbs(S'VBZ'
g18
I00
tp814
(imultinomial
Multinomial
p815
(dp816
g6
g7
(g8
tRp817
sg10
F0
sg11
g7
(g8
tRp818
I00
F0.6769558228096928
sI01
F0.32304417719030715
ssbs(S'VBP'
g2
I01
tp819
(imultinomial
Multinomial
p820
(dp821
g6
g7
(g8
tRp822
sg10
F0
sg11
g7
(g8
tRp823
I00
F0.70291791197555964
sI01
F0.29708208802444025
ssbs(S')'
g18
I01
tp824
(imultinomial
Multinomial
p825
(dp826
g6
g7
(g8
tRp827
sg10
F0
sg11
g7
(g8
tRp828
I00
F0.70502416451487371
sI01
F0.29497583548512635
ssbs(S'('
g2
I01
tp829
(imultinomial
Multinomial
p830
(dp831
g6
g7
(g8
tRp832
sg10
F0
sg11
g7
(g8
tRp833
I00
F0.70242829725319833
sI01
F0.29757170274680161
ssbs(S'.'
g18
I01
tp834
(imultinomial
Multinomial
p835
(dp836
g6
g7
(g8
tRp837
sg10
F0
sg11
g7
(g8
tRp838
I00
F0.70279194879064755
sI01
F0.29720805120935256
ssbs(S'SYM'
g18
I01
tp839
(imultinomial
Multinomial
p840
(dp841
g6
g7
(g8
tRp842
sg10
F0
sg11
g7
(g8
tRp843
I00
F0.95833579850036499
sI01
F0.041664201499635012
ssbs(S'WP'
g18
I01
tp844
(imultinomial
Multinomial
p845
(dp846
g6
g7
(g8
tRp847
sg10
F0
sg11
g7
(g8
tRp848
I00
F0.78225853950006063
sI01
F0.21774146049993934
ssbs(S'TO'
g2
I00
tp849
(imultinomial
Multinomial
p850
(dp851
g6
g7
(g8
tRp852
sg10
F0
sg11
g7
(g8
tRp853
I00
F0.60688348587307983
sI01
F0.39311651412692011
ssbs(S'``'
g2
I00
tp854
(imultinomial
Multinomial
p855
(dp856
g6
g7
(g8
tRp857
sg10
F0
sg11
g7
(g8
tRp858
I00
F0.48412576004159619
sI01
F0.51587423995840387
ssbs(S'EX'
g2
I00
tp859
(imultinomial
Multinomial
p860
(dp861
g6
g7
(g8
tRp862
sg10
F0
sg11
g7
(g8
tRp863
I00
F0.49951643555686059
sI01
F0.50048356444313946
ssbs(S'PRP'
g18
I01
tp864
(imultinomial
Multinomial
p865
(dp866
g6
g7
(g8
tRp867
sg10
F0
sg11
g7
(g8
tRp868
I00
F0.79075765505898943
sI01
F0.20924234494101063
ssbs(S'IN'
g2
I00
tp869
(imultinomial
Multinomial
p870
(dp871
g6
g7
(g8
tRp872
sg10
F0
sg11
g7
(g8
tRp873
I00
F0.59981746154177185
sI01
F0.40018253845822821
ssbs(S'DT'
g2
I01
tp874
(imultinomial
Multinomial
p875
(dp876
g6
g7
(g8
tRp877
sg10
F0
sg11
g7
(g8
tRp878
I00
F0.70286196117880217
sI01
F0.29713803882119788
ssbs(S'NN'
g18
I01
tp879
(imultinomial
Multinomial
p880
(dp881
g6
g7
(g8
tRp882
sg10
F0
sg11
g7
(g8
tRp883
I00
F0.71756073124672115
sI01
F0.28243926875327885
ssbs(S'FW'
g2
I01
tp884
(imultinomial
Multinomial
p885
(dp886
g6
g7
(g8
tRp887
sg10
F0
sg11
g7
(g8
tRp888
I00
F0.70068388673709603
sI01
F0.29931611326290403
ssbs(S'WRB'
g18
I00
tp889
(imultinomial
Multinomial
p890
(dp891
g6
g7
(g8
tRp892
sg10
F0
sg11
g7
(g8
tRp893
I00
F0.6594554330453688
sI01
F0.34054456695463114
ssbs(S'UH'
g2
I00
tp894
(imultinomial
Multinomial
p895
(dp896
g6
g7
(g8
tRp897
sg10
F0
sg11
g7
(g8
tRp898
I00
F0.58536826442171919
sI01
F0.41463173557828092
ssbs(S':'
g18
I01
tp899
(imultinomial
Multinomial
p900
(dp901
g6
g7
(g8
tRp902
sg10
F0
sg11
g7
(g8
tRp903
I00
F0.7266597331339878
sI01
F0.27334026686601232
ssbs(S'#'
g2
I00
tp904
(imultinomial
Multinomial
p905
(dp906
g6
g7
(g8
tRp907
sg10
F0
sg11
g7
(g8
tRp908
I00
F0.64498029560615244
sI01
F0.35501970439384761
ssbs(S'PRP'
g2
I00
tp909
(imultinomial
Multinomial
p910
(dp911
g6
g7
(g8
tRp912
sg10
F0
sg11
g7
(g8
tRp913
I00
F0.5412996816131459
sI01
F0.45870031838685404
ssbs(S'WDT'
g18
I00
tp914
(imultinomial
Multinomial
p915
(dp916
g6
g7
(g8
tRp917
sg10
F0
sg11
g7
(g8
tRp918
I00
F0.61470392000459617
sI01
F0.38529607999540383
ssbs(S'EX'
g18
I01
tp919
(imultinomial
Multinomial
p920
(dp921
g6
g7
(g8
tRp922
sg10
F0
sg11
g7
(g8
tRp923
I00
F0.80277536289864404
sI01
F0.19722463710135602
ssbs(S'*'
g18
I00
tp924
(imultinomial
Multinomial
p925
(dp926
g6
g7
(g8
tRp927
sg10
F0
sg11
g7
(g8
tRp928
I00
F0.7219675800398806
sI01
F0.27803241996011935
ssbs.