(dp1
(S'C'
S'G'
S'right'
p2
S'adj'
p3
tp4
F0.69999999999999996
s(S'H'
S'F'
S'left'
p5
g3
tp6
F0.59999999999999998
s(S'D'
S'B'
g5
S'non-adj'
p7
tp8
F0.29999999999999999
s(S'A'
S'D'
g2
g7
tp9
F0.40000000000000002
s(S'*'
S'B'
g2
g7
tp10
F0.40000000000000002
s(S'*'
S'H'
g2
g7
tp11
F0.40000000000000002
s(S'*'
S'C'
g2
g3
tp12
F0.69999999999999996
s(S'G'
S'H'
g2
g7
tp13
F0.40000000000000002
s(S'F'
S'*'
g5
g3
tp14
F0.59999999999999998
s(S'C'
S'F'
g2
g7
tp15
F0.40000000000000002
s(S'F'
S'*'
g5
g7
tp16
F0.29999999999999999
s(S'A'
S'*'
g5
g7
tp17
F0.29999999999999999
s(S'D'
S'*'
g5
g7
tp18
F0.29999999999999999
s(S'H'
S'B'
g5
g7
tp19
F0.29999999999999999
s(S'A'
S'F'
g2
g7
tp20
F0.40000000000000002
s(S'B'
S'C'
g2
g3
tp21
F0.69999999999999996
s(S'F'
S'G'
g2
g7
tp22
F0.40000000000000002
s(S'E'
S'G'
g2
g7
tp23
F0.40000000000000002
s(S'G'
S'B'
g5
g3
tp24
F0.59999999999999998
s(S'F'
S'H'
g2
g7
tp25
F0.40000000000000002
s(S'C'
S'D'
g2
g7
tp26
F0.40000000000000002
s(S'H'
S'F'
g5
g7
tp27
F0.29999999999999999
s(S'H'
S'*'
g5
g3
tp28
F0.59999999999999998
s(S'F'
S'D'
g5
g3
tp29
F0.59999999999999998
s(S'G'
S'B'
g5
g7
tp30
F0.29999999999999999
s(S'E'
S'H'
g2
g3
tp31
F0.69999999999999996
s(S'B'
S'F'
g2
g3
tp32
F0.69999999999999996
s(S'B'
S'C'
g2
g7
tp33
F0.40000000000000002
s(S'A'
S'C'
g2
g3
tp34
F0.69999999999999996
s(S'A'
S'C'
g2
g7
tp35
F0.40000000000000002
s(S'C'
S'F'
g2
g3
tp36
F0.69999999999999996
s(S'C'
S'B'
g5
g3
tp37
F0.59999999999999998
s(S'*'
S'F'
g2
g7
tp38
F0.40000000000000002
s(S'G'
S'D'
g5
g3
tp39
F0.59999999999999998
s(S'A'
S'D'
g2
g3
tp40
F0.69999999999999996
s(S'G'
S'*'
g5
g3
tp41
F0.59999999999999998
s(S'*'
S'D'
g2
g3
tp42
F0.69999999999999996
s(S'C'
S'*'
g5
g7
tp43
F0.29999999999999999
s(S'F'
S'B'
g5
g3
tp44
F0.59999999999999998
s(S'A'
S'H'
g2
g7
tp45
F0.40000000000000002
s(S'C'
S'A'
g5
g7
tp46
F0.29999999999999999
s(S'E'
S'A'
g5
g7
tp47
F0.29999999999999999
s(S'D'
S'*'
g5
g3
tp48
F0.59999999999999998
s(S'B'
S'G'
g2
g7
tp49
F0.40000000000000002
s(S'F'
S'B'
g5
g7
tp50
F0.29999999999999999
s(S'G'
S'F'
g5
g3
tp51
F0.59999999999999998
s(S'E'
S'D'
g5
g7
tp52
F0.29999999999999999
s(S'G'
S'C'
g5
g7
tp53
F0.29999999999999999
s(S'*'
S'G'
g2
g3
tp54
F0.69999999999999996
s(S'D'
S'G'
g2
g7
tp55
F0.40000000000000002
s(S'C'
S'G'
g2
g7
tp56
F0.40000000000000002
s(S'E'
S'H'
g2
g7
tp57
F0.40000000000000002
s(S'D'
S'H'
g2
g7
tp58
F0.40000000000000002
s(S'*'
S'A'
g2
g3
tp59
F0.69999999999999996
s(S'B'
S'G'
g2
g3
tp60
F0.69999999999999996
s(S'A'
S'H'
g2
g3
tp61
F0.69999999999999996
s(S'H'
S'C'
g5
g7
tp62
F0.29999999999999999
s(S'A'
S'G'
g2
g7
tp63
F0.40000000000000002
s(S'D'
S'B'
g5
g3
tp64
F0.59999999999999998
s(S'F'
S'G'
g2
g3
tp65
F0.69999999999999996
s(S'G'
S'F'
g5
g7
tp66
F0.29999999999999999
s(S'D'
S'A'
g5
g3
tp67
F0.59999999999999998
s(S'D'
S'F'
g2
g3
tp68
F0.69999999999999996
s(S'B'
S'E'
g2
g3
tp69
F0.69999999999999996
s(S'A'
S'*'
g5
g3
tp70
F0.59999999999999998
s(S'F'
S'E'
g5
g3
tp71
F0.59999999999999998
s(S'D'
S'C'
g5
g7
tp72
F0.29999999999999999
s(S'B'
S'D'
g2
g3
tp73
F0.69999999999999996
s(S'H'
S'*'
g5
g7
tp74
F0.29999999999999999
s(S'E'
S'G'
g2
g3
tp75
F0.69999999999999996
s(S'D'
S'C'
g5
g3
tp76
F0.59999999999999998
s(S'F'
S'E'
g5
g7
tp77
F0.29999999999999999
s(S'A'
S'E'
g2
g3
tp78
F0.69999999999999996
s(S'H'
S'A'
g5
g3
tp79
F0.59999999999999998
s(S'C'
S'A'
g5
g3
tp80
F0.59999999999999998
s(S'E'
S'B'
g5
g3
tp81
F0.59999999999999998
s(S'E'
S'*'
g5
g7
tp82
F0.29999999999999999
s(S'*'
S'B'
g2
g3
tp83
F0.69999999999999996
s(S'C'
S'H'
g2
g3
tp84
F0.69999999999999996
s(S'F'
S'C'
g5
g7
tp85
F0.29999999999999999
s(S'B'
S'D'
g2
g7
tp86
F0.40000000000000002
s(S'E'
S'C'
g5
g7
tp87
F0.29999999999999999
s(S'F'
S'C'
g5
g3
tp88
F0.59999999999999998
s(S'H'
S'C'
g5
g3
tp89
F0.59999999999999998
s(S'A'
S'B'
g2
g3
tp90
F0.69999999999999996
s(S'*'
S'A'
g2
g7
tp91
F0.40000000000000002
s(S'D'
S'F'
g2
g7
tp92
F0.40000000000000002
s(S'G'
S'A'
g5
g7
tp93
F0.29999999999999999
s(S'*'
S'E'
g2
g3
tp94
F0.69999999999999996
s(S'*'
S'D'
g2
g7
tp95
F0.40000000000000002
s(S'D'
S'G'
g2
g3
tp96
F0.69999999999999996
s(S'H'
S'D'
g5
g3
tp97
F0.59999999999999998
s(S'H'
S'G'
g5
g7
tp98
F0.29999999999999999
s(S'H'
S'D'
g5
g7
tp99
F0.29999999999999999
s(S'B'
S'F'
g2
g7
tp100
F0.40000000000000002
s(S'E'
S'D'
g5
g3
tp101
F0.59999999999999998
s(S'H'
S'E'
g5
g7
tp102
F0.29999999999999999
s(S'F'
S'A'
g5
g3
tp103
F0.59999999999999998
s(S'G'
S'A'
g5
g3
tp104
F0.59999999999999998
s(S'F'
S'D'
g5
g7
tp105
F0.29999999999999999
s(S'B'
S'A'
g5
g7
tp106
F0.29999999999999999
s(S'H'
S'A'
g5
g7
tp107
F0.29999999999999999
s(S'A'
S'G'
g2
g3
tp108
F0.69999999999999996
s(S'E'
S'F'
g2
g3
tp109
F0.69999999999999996
s(S'*'
S'C'
g2
g7
tp110
F0.40000000000000002
s(S'E'
S'C'
g5
g3
tp111
F0.59999999999999998
s(S'B'
S'*'
g5
g3
tp112
F0.59999999999999998
s(S'H'
S'E'
g5
g3
tp113
F0.59999999999999998
s(S'G'
S'D'
g5
g7
tp114
F0.29999999999999999
s(S'G'
S'C'
g5
g3
tp115
F0.59999999999999998
s(S'B'
S'H'
g2
g3
tp116
F0.69999999999999996
s(S'B'
S'A'
g5
g3
tp117
F0.59999999999999998
s(S'C'
S'B'
g5
g7
tp118
F0.29999999999999999
s(S'H'
S'B'
g5
g3
tp119
F0.59999999999999998
s(S'E'
S'F'
g2
g7
tp120
F0.40000000000000002
s(S'B'
S'E'
g2
g7
tp121
F0.40000000000000002
s(S'E'
S'A'
g5
g3
tp122
F0.59999999999999998
s(S'D'
S'A'
g5
g7
tp123
F0.29999999999999999
s(S'A'
S'E'
g2
g7
tp124
F0.40000000000000002
s(S'F'
S'A'
g5
g7
tp125
F0.29999999999999999
s(S'B'
S'H'
g2
g7
tp126
F0.40000000000000002
s(S'*'
S'H'
g2
g3
tp127
F0.69999999999999996
s(S'G'
S'*'
g5
g7
tp128
F0.29999999999999999
s(S'H'
S'G'
g5
g3
tp129
F0.59999999999999998
s(S'D'
S'E'
g2
g3
tp130
F0.69999999999999996
s(S'B'
S'*'
g5
g7
tp131
F0.29999999999999999
s(S'*'
S'E'
g2
g7
tp132
F0.40000000000000002
s(S'*'
S'F'
g2
g3
tp133
F0.69999999999999996
s(S'A'
S'B'
g2
g7
tp134
F0.40000000000000002
s(S'C'
S'D'
g2
g3
tp135
F0.69999999999999996
s(S'G'
S'E'
g5
g3
tp136
F0.59999999999999998
s(S'C'
S'H'
g2
g7
tp137
F0.40000000000000002
s(S'D'
S'E'
g2
g7
tp138
F0.40000000000000002
s(S'C'
S'E'
g2
g3
tp139
F0.69999999999999996
s(S'A'
S'F'
g2
g3
tp140
F0.69999999999999996
s(S'C'
S'E'
g2
g7
tp141
F0.40000000000000002
s(S'*'
S'G'
g2
g7
tp142
F0.40000000000000002
s(S'E'
S'*'
g5
g3
tp143
F0.59999999999999998
s(S'E'
S'B'
g5
g7
tp144
F0.29999999999999999
s(S'G'
S'E'
g5
g7
tp145
F0.29999999999999999
s(S'G'
S'H'
g2
g3
tp146
F0.69999999999999996
s(S'F'
S'H'
g2
g3
tp147
F0.69999999999999996
s(S'C'
S'*'
g5
g3
tp148
F0.59999999999999998
s(S'D'
S'H'
g2
g3
tp149
F0.69999999999999996
s.(dp1
(S'B'
S'left'
p2
S'non-adj'
p3
tp4
F0.29999999999999999
s(S'A'
g2
S'adj'
p5
tp6
F0.59999999999999998
s(S'F'
S'right'
p7
g5
tp8
F0.69999999999999996
s(S'G'
g2
g3
tp9
F0.69999999999999996
s(S'*'
g2
g5
tp10
F0.59999999999999998
s(S'B'
g2
g5
tp11
F0.29999999999999999
s(S'D'
g7
g3
tp12
F0.29999999999999999
s(S'H'
g7
g3
tp13
F0.29999999999999999
s(S'D'
g2
g5
tp14
F0.29999999999999999
s(S'H'
g2
g3
tp15
F0.69999999999999996
s(S'H'
g2
g5
tp16
F0.29999999999999999
s(S'D'
g2
g3
tp17
F0.69999999999999996
s(S'H'
g7
g5
tp18
F0.69999999999999996
s(S'G'
g2
g5
tp19
F0.29999999999999999
s(S'D'
g7
g5
tp20
F0.69999999999999996
s(S'A'
g2
g3
tp21
F0.59999999999999998
s(S'*'
g2
g3
tp22
F0.59999999999999998
s(S'G'
g7
g3
tp23
F0.29999999999999999
s(S'F'
g7
g3
tp24
F0.29999999999999999
s(S'A'
g7
g5
tp25
F0.40000000000000002
s(S'E'
g7
g3
tp26
F0.29999999999999999
s(S'C'
g7
g5
tp27
F0.69999999999999996
s(S'C'
g2
g5
tp28
F0.69999999999999996
s(S'F'
g2
g3
tp29
F0.69999999999999996
s(S'E'
g2
g3
tp30
F0.69999999999999996
s(S'E'
g2
g5
tp31
F0.29999999999999999
s(S'B'
g7
g5
tp32
F0.69999999999999996
s(S'*'
g7
g3
tp33
F0.59999999999999998
s(S'C'
g2
g3
tp34
F0.29999999999999999
s(S'C'
g7
g3
tp35
F0.29999999999999999
s(S'*'
g7
g5
tp36
F0.40000000000000002
s(S'B'
g7
g3
tp37
F0.29999999999999999
s(S'E'
g7
g5
tp38
F0.69999999999999996
s(S'F'
g2
g5
tp39
F0.29999999999999999
s(S'A'
g7
g3
tp40
F0.59999999999999998
s(S'G'
g7
g5
tp41
F0.69999999999999996
s.(dp1
(S'B'
S'left'
p2
S'non-adj'
p3
tp4
F0.29999999999999999
s(S'A'
g2
S'adj'
p5
tp6
F0.59999999999999998
s(S'F'
S'right'
p7
g5
tp8
F0.69999999999999996
s(S'G'
g2
g3
tp9
F0.69999999999999996
s(S'*'
g2
g5
tp10
F0.59999999999999998
s(S'B'
g2
g5
tp11
F0.29999999999999999
s(S'D'
g7
g3
tp12
F0.29999999999999999
s(S'H'
g7
g3
tp13
F0.29999999999999999
s(S'D'
g2
g5
tp14
F0.29999999999999999
s(S'H'
g2
g3
tp15
F0.69999999999999996
s(S'H'
g2
g5
tp16
F0.29999999999999999
s(S'D'
g2
g3
tp17
F0.69999999999999996
s(S'H'
g7
g5
tp18
F0.69999999999999996
s(S'G'
g2
g5
tp19
F0.29999999999999999
s(S'D'
g7
g5
tp20
F0.69999999999999996
s(S'A'
g2
g3
tp21
F0.59999999999999998
s(S'*'
g2
g3
tp22
F0.59999999999999998
s(S'G'
g7
g3
tp23
F0.29999999999999999
s(S'F'
g7
g3
tp24
F0.29999999999999999
s(S'A'
g7
g5
tp25
F0.40000000000000002
s(S'E'
g7
g3
tp26
F0.29999999999999999
s(S'C'
g7
g5
tp27
F0.69999999999999996
s(S'C'
g2
g5
tp28
F0.69999999999999996
s(S'F'
g2
g3
tp29
F0.69999999999999996
s(S'E'
g2
g3
tp30
F0.69999999999999996
s(S'E'
g2
g5
tp31
F0.29999999999999999
s(S'B'
g7
g5
tp32
F0.69999999999999996
s(S'*'
g7
g3
tp33
F0.59999999999999998
s(S'C'
g2
g3
tp34
F0.29999999999999999
s(S'C'
g7
g3
tp35
F0.29999999999999999
s(S'*'
g7
g5
tp36
F0.40000000000000002
s(S'B'
g7
g3
tp37
F0.29999999999999999
s(S'E'
g7
g5
tp38
F0.69999999999999996
s(S'F'
g2
g5
tp39
F0.29999999999999999
s(S'A'
g7
g3
tp40
F0.59999999999999998
s(S'G'
g7
g5
tp41
F0.69999999999999996
s.