(dp1
(S'C'
S'E'
S'left'
p2
S'non-adj'
p3
tp4
F0.20000000000000001
s(S'C'
S'G'
S'right'
p5
S'adj'
p6
tp7
F0.59999999999999998
s(S'E'
S'B'
g5
g6
tp8
F0.59999999999999998
s(S'D'
S'B'
g2
g3
tp9
F0.20000000000000001
s(S'A'
S'D'
g5
g3
tp10
F0.40000000000000002
s(S'*'
S'G'
g2
g3
tp11
F0.20000000000000001
s(S'*'
S'B'
g5
g3
tp12
F0.40000000000000002
s(S'E'
S'D'
g5
g6
tp13
F0.59999999999999998
s(S'*'
S'C'
g5
g6
tp14
F0.59999999999999998
s(S'F'
S'*'
g2
g6
tp15
F0.80000000000000004
s(S'C'
S'F'
g5
g3
tp16
F0.40000000000000002
s(S'F'
S'*'
g2
g3
tp17
F0.20000000000000001
s(S'A'
S'*'
g2
g3
tp18
F0.20000000000000001
s(S'D'
S'*'
g2
g3
tp19
F0.20000000000000001
s(S'E'
S'B'
g5
g3
tp20
F0.40000000000000002
s(S'B'
S'G'
g2
g3
tp21
F0.20000000000000001
s(S'D'
S'E'
g2
g6
tp22
F0.80000000000000004
s(S'G'
S'D'
g5
g6
tp23
F0.59999999999999998
s(S'B'
S'*'
g5
g3
tp24
F0.40000000000000002
s(S'A'
S'F'
g5
g3
tp25
F0.40000000000000002
s(S'B'
S'C'
g5
g6
tp26
F0.59999999999999998
s(S'F'
S'G'
g5
g3
tp27
F0.40000000000000002
s(S'E'
S'G'
g5
g3
tp28
F0.40000000000000002
s(S'C'
S'F'
g2
g6
tp29
F0.80000000000000004
s(S'G'
S'B'
g2
g6
tp30
F0.80000000000000004
s(S'G'
S'B'
g5
g6
tp31
F0.59999999999999998
s(S'G'
S'E'
g5
g6
tp32
F0.59999999999999998
s(S'G'
S'*'
g5
g6
tp33
F0.59999999999999998
s(S'C'
S'D'
g5
g3
tp34
F0.40000000000000002
s(S'D'
S'A'
g5
g6
tp35
F0.59999999999999998
s(S'D'
S'*'
g5
g6
tp36
F0.59999999999999998
s(S'C'
S'G'
g5
g3
tp37
F0.40000000000000002
s(S'C'
S'A'
g5
g3
tp38
F0.40000000000000002
s(S'F'
S'C'
g2
g3
tp39
F0.20000000000000001
s(S'E'
S'*'
g5
g6
tp40
F0.59999999999999998
s(S'F'
S'D'
g2
g6
tp41
F0.80000000000000004
s(S'D'
S'E'
g2
g3
tp42
F0.20000000000000001
s(S'D'
S'A'
g2
g3
tp43
F0.20000000000000001
s(S'*'
S'E'
g2
g3
tp44
F0.20000000000000001
s(S'B'
S'F'
g5
g6
tp45
F0.59999999999999998
s(S'B'
S'C'
g5
g3
tp46
F0.40000000000000002
s(S'A'
S'C'
g5
g6
tp47
F0.59999999999999998
s(S'A'
S'C'
g5
g3
tp48
F0.40000000000000002
s(S'G'
S'C'
g5
g3
tp49
F0.40000000000000002
s(S'D'
S'G'
g2
g3
tp50
F0.20000000000000001
s(S'D'
S'C'
g5
g6
tp51
F0.59999999999999998
s(S'C'
S'F'
g5
g6
tp52
F0.59999999999999998
s(S'A'
S'E'
g2
g3
tp53
F0.20000000000000001
s(S'C'
S'B'
g2
g6
tp54
F0.80000000000000004
s(S'*'
S'F'
g5
g3
tp55
F0.40000000000000002
s(S'C'
S'*'
g5
g6
tp56
F0.59999999999999998
s(S'B'
S'F'
g2
g3
tp57
F0.20000000000000001
s(S'F'
S'E'
g5
g6
tp58
F0.59999999999999998
s(S'F'
S'B'
g5
g6
tp59
F0.59999999999999998
s(S'G'
S'D'
g2
g6
tp60
F0.80000000000000004
s(S'A'
S'C'
g2
g3
tp61
F0.20000000000000001
s(S'A'
S'D'
g5
g6
tp62
F0.59999999999999998
s(S'F'
S'C'
g5
g6
tp63
F0.59999999999999998
s(S'C'
S'B'
g5
g3
tp64
F0.40000000000000002
s(S'*'
S'D'
g5
g6
tp65
F0.59999999999999998
s(S'C'
S'*'
g2
g3
tp66
F0.20000000000000001
s(S'G'
S'A'
g5
g3
tp67
F0.40000000000000002
s(S'C'
S'*'
g5
g3
tp68
F0.40000000000000002
s(S'F'
S'D'
g5
g6
tp69
F0.59999999999999998
s(S'F'
S'B'
g2
g6
tp70
F0.80000000000000004
s(S'*'
S'C'
g2
g6
tp71
F0.80000000000000004
s(S'C'
S'A'
g2
g3
tp72
F0.20000000000000001
s(S'E'
S'A'
g2
g3
tp73
F0.20000000000000001
s(S'D'
S'*'
g2
g6
tp74
F0.80000000000000004
s(S'F'
S'C'
g5
g3
tp75
F0.40000000000000002
s(S'D'
S'A'
g5
g3
tp76
F0.40000000000000002
s(S'E'
S'C'
g5
g3
tp77
F0.40000000000000002
s(S'G'
S'*'
g2
g6
tp78
F0.80000000000000004
s(S'F'
S'B'
g2
g3
tp79
F0.20000000000000001
s(S'G'
S'F'
g2
g6
tp80
F0.80000000000000004
s(S'F'
S'D'
g5
g3
tp81
F0.40000000000000002
s(S'E'
S'D'
g2
g3
tp82
F0.20000000000000001
s(S'E'
S'G'
g2
g3
tp83
F0.20000000000000001
s(S'G'
S'C'
g2
g3
tp84
F0.20000000000000001
s(S'*'
S'G'
g5
g6
tp85
F0.59999999999999998
s(S'D'
S'G'
g5
g3
tp86
F0.40000000000000002
s(S'C'
S'E'
g2
g6
tp87
F0.80000000000000004
s(S'*'
S'A'
g2
g6
tp88
F0.80000000000000004
s(S'B'
S'F'
g2
g6
tp89
F0.80000000000000004
s(S'*'
S'A'
g5
g6
tp90
F0.59999999999999998
s(S'*'
S'D'
g2
g3
tp91
F0.20000000000000001
s(S'A'
S'*'
g5
g6
tp92
F0.59999999999999998
s(S'F'
S'*'
g5
g3
tp93
F0.40000000000000002
s(S'B'
S'G'
g5
g6
tp94
F0.59999999999999998
s(S'B'
S'G'
g5
g3
tp95
F0.40000000000000002
s(S'A'
S'G'
g5
g3
tp96
F0.40000000000000002
s(S'G'
S'B'
g5
g3
tp97
F0.40000000000000002
s(S'*'
S'A'
g2
g3
tp98
F0.20000000000000001
s(S'*'
S'B'
g2
g3
tp99
F0.20000000000000001
s(S'D'
S'B'
g2
g6
tp100
F0.80000000000000004
s(S'F'
S'G'
g2
g6
tp101
F0.80000000000000004
s(S'F'
S'G'
g5
g6
tp102
F0.59999999999999998
s(S'E'
S'C'
g2
g6
tp103
F0.80000000000000004
s(S'A'
S'B'
g2
g3
tp104
F0.20000000000000001
s(S'B'
S'D'
g2
g6
tp105
F0.80000000000000004
s(S'B'
S'C'
g2
g6
tp106
F0.80000000000000004
s(S'*'
S'B'
g2
g6
tp107
F0.80000000000000004
s(S'B'
S'A'
g2
g3
tp108
F0.20000000000000001
s(S'D'
S'F'
g5
g6
tp109
F0.59999999999999998
s(S'B'
S'E'
g5
g6
tp110
F0.59999999999999998
s(S'A'
S'*'
g2
g6
tp111
F0.80000000000000004
s(S'C'
S'A'
g5
g6
tp112
F0.59999999999999998
s(S'G'
S'*'
g5
g3
tp113
F0.40000000000000002
s(S'D'
S'F'
g2
g6
tp114
F0.80000000000000004
s(S'A'
S'G'
g2
g3
tp115
F0.20000000000000001
s(S'G'
S'E'
g5
g3
tp116
F0.40000000000000002
s(S'F'
S'E'
g2
g6
tp117
F0.80000000000000004
s(S'D'
S'C'
g2
g3
tp118
F0.20000000000000001
s(S'B'
S'D'
g5
g6
tp119
F0.59999999999999998
s(S'*'
S'G'
g2
g6
tp120
F0.80000000000000004
s(S'C'
S'B'
g5
g6
tp121
F0.59999999999999998
s(S'E'
S'G'
g5
g6
tp122
F0.59999999999999998
s(S'G'
S'F'
g5
g6
tp123
F0.59999999999999998
s(S'F'
S'E'
g5
g3
tp124
F0.40000000000000002
s(S'D'
S'C'
g2
g6
tp125
F0.80000000000000004
s(S'E'
S'G'
g2
g6
tp126
F0.80000000000000004
s(S'F'
S'E'
g2
g3
tp127
F0.20000000000000001
s(S'F'
S'A'
g5
g6
tp128
F0.59999999999999998
s(S'A'
S'D'
g2
g3
tp129
F0.20000000000000001
s(S'A'
S'E'
g5
g6
tp130
F0.59999999999999998
s(S'D'
S'C'
g5
g3
tp131
F0.40000000000000002
s(S'D'
S'G'
g2
g6
tp132
F0.80000000000000004
s(S'C'
S'A'
g2
g6
tp133
F0.80000000000000004
s(S'*'
S'E'
g2
g6
tp134
F0.80000000000000004
s(S'E'
S'B'
g2
g6
tp135
F0.80000000000000004
s(S'E'
S'*'
g2
g3
tp136
F0.20000000000000001
s(S'*'
S'B'
g5
g6
tp137
F0.59999999999999998
s(S'B'
S'A'
g5
g3
tp138
F0.40000000000000002
s(S'A'
S'C'
g2
g6
tp139
F0.80000000000000004
s(S'G'
S'F'
g5
g3
tp140
F0.40000000000000002
s(S'F'
S'B'
g5
g3
tp141
F0.40000000000000002
s(S'B'
S'D'
g5
g3
tp142
F0.40000000000000002
s(S'E'
S'F'
g2
g6
tp143
F0.80000000000000004
s(S'E'
S'A'
g5
g6
tp144
F0.59999999999999998
s(S'F'
S'C'
g2
g6
tp145
F0.80000000000000004
s(S'A'
S'B'
g5
g6
tp146
F0.59999999999999998
s(S'G'
S'B'
g2
g3
tp147
F0.20000000000000001
s(S'*'
S'A'
g5
g3
tp148
F0.40000000000000002
s(S'E'
S'F'
g2
g3
tp149
F0.20000000000000001
s(S'D'
S'F'
g5
g3
tp150
F0.40000000000000002
s(S'B'
S'E'
g2
g6
tp151
F0.80000000000000004
s(S'G'
S'A'
g2
g3
tp152
F0.20000000000000001
s(S'*'
S'E'
g5
g6
tp153
F0.59999999999999998
s(S'*'
S'D'
g5
g3
tp154
F0.40000000000000002
s(S'G'
S'F'
g2
g3
tp155
F0.20000000000000001
s(S'D'
S'G'
g5
g6
tp156
F0.59999999999999998
s(S'C'
S'G'
g2
g3
tp157
F0.20000000000000001
s(S'C'
S'G'
g2
g6
tp158
F0.80000000000000004
s(S'G'
S'D'
g5
g3
tp159
F0.40000000000000002
s(S'B'
S'F'
g5
g3
tp160
F0.40000000000000002
s(S'E'
S'D'
g2
g6
tp161
F0.80000000000000004
s(S'A'
S'B'
g2
g6
tp162
F0.80000000000000004
s(S'*'
S'F'
g2
g3
tp163
F0.20000000000000001
s(S'F'
S'A'
g2
g6
tp164
F0.80000000000000004
s(S'G'
S'A'
g2
g6
tp165
F0.80000000000000004
s(S'B'
S'G'
g2
g6
tp166
F0.80000000000000004
s(S'E'
S'C'
g2
g3
tp167
F0.20000000000000001
s(S'F'
S'D'
g2
g3
tp168
F0.20000000000000001
s(S'D'
S'A'
g2
g6
tp169
F0.80000000000000004
s(S'A'
S'G'
g5
g6
tp170
F0.59999999999999998
s(S'E'
S'F'
g5
g6
tp171
F0.59999999999999998
s(S'*'
S'C'
g5
g3
tp172
F0.40000000000000002
s(S'E'
S'D'
g5
g3
tp173
F0.40000000000000002
s(S'*'
S'C'
g2
g3
tp174
F0.20000000000000001
s(S'F'
S'*'
g5
g6
tp175
F0.59999999999999998
s(S'F'
S'A'
g5
g3
tp176
F0.40000000000000002
s(S'*'
S'D'
g2
g6
tp177
F0.80000000000000004
s(S'E'
S'A'
g5
g3
tp178
F0.40000000000000002
s(S'B'
S'E'
g2
g3
tp179
F0.20000000000000001
s(S'D'
S'B'
g5
g6
tp180
F0.59999999999999998
s(S'B'
S'*'
g2
g6
tp181
F0.80000000000000004
s(S'G'
S'C'
g5
g6
tp182
F0.59999999999999998
s(S'G'
S'D'
g2
g3
tp183
F0.20000000000000001
s(S'B'
S'*'
g5
g6
tp184
F0.59999999999999998
s(S'G'
S'C'
g2
g6
tp185
F0.80000000000000004
s(S'B'
S'C'
g2
g3
tp186
F0.20000000000000001
s(S'C'
S'B'
g2
g3
tp187
F0.20000000000000001
s(S'E'
S'C'
g5
g6
tp188
F0.59999999999999998
s(S'E'
S'F'
g5
g3
tp189
F0.40000000000000002
s(S'B'
S'E'
g5
g3
tp190
F0.40000000000000002
s(S'E'
S'A'
g2
g6
tp191
F0.80000000000000004
s(S'B'
S'A'
g2
g6
tp192
F0.80000000000000004
s(S'A'
S'E'
g5
g3
tp193
F0.40000000000000002
s(S'F'
S'A'
g2
g3
tp194
F0.20000000000000001
s(S'C'
S'D'
g2
g3
tp195
F0.20000000000000001
s(S'G'
S'A'
g5
g6
tp196
F0.59999999999999998
s(S'G'
S'*'
g2
g3
tp197
F0.20000000000000001
s(S'D'
S'E'
g5
g6
tp198
F0.59999999999999998
s(S'B'
S'*'
g2
g3
tp199
F0.20000000000000001
s(S'F'
S'G'
g2
g3
tp200
F0.20000000000000001
s(S'*'
S'E'
g5
g3
tp201
F0.40000000000000002
s(S'A'
S'F'
g2
g3
tp202
F0.20000000000000001
s(S'D'
S'B'
g5
g3
tp203
F0.40000000000000002
s(S'E'
S'*'
g5
g3
tp204
F0.40000000000000002
s(S'*'
S'F'
g5
g6
tp205
F0.59999999999999998
s(S'A'
S'B'
g5
g3
tp206
F0.40000000000000002
s(S'D'
S'F'
g2
g3
tp207
F0.20000000000000001
s(S'C'
S'D'
g5
g6
tp208
F0.59999999999999998
s(S'A'
S'E'
g2
g6
tp209
F0.80000000000000004
s(S'A'
S'*'
g5
g3
tp210
F0.40000000000000002
s(S'A'
S'G'
g2
g6
tp211
F0.80000000000000004
s(S'A'
S'F'
g2
g6
tp212
F0.80000000000000004
s(S'G'
S'E'
g2
g6
tp213
F0.80000000000000004
s(S'B'
S'A'
g5
g6
tp214
F0.59999999999999998
s(S'B'
S'D'
g2
g3
tp215
F0.20000000000000001
s(S'D'
S'E'
g5
g3
tp216
F0.40000000000000002
s(S'C'
S'E'
g5
g6
tp217
F0.59999999999999998
s(S'A'
S'F'
g5
g6
tp218
F0.59999999999999998
s(S'C'
S'E'
g5
g3
tp219
F0.40000000000000002
s(S'*'
S'G'
g5
g3
tp220
F0.40000000000000002
s(S'E'
S'*'
g2
g6
tp221
F0.80000000000000004
s(S'E'
S'B'
g2
g3
tp222
F0.20000000000000001
s(S'C'
S'D'
g2
g6
tp223
F0.80000000000000004
s(S'G'
S'E'
g2
g3
tp224
F0.20000000000000001
s(S'*'
S'F'
g2
g6
tp225
F0.80000000000000004
s(S'D'
S'*'
g5
g3
tp226
F0.40000000000000002
s(S'A'
S'D'
g2
g6
tp227
F0.80000000000000004
s(S'C'
S'F'
g2
g3
tp228
F0.20000000000000001
s(S'C'
S'*'
g2
g6
tp229
F0.80000000000000004
s.(dp1
(S'B'
S'left'
p2
S'non-adj'
p3
tp4
F0.29999999999999999
s(S'A'
g2
S'adj'
p5
tp6
F0.69999999999999996
s(S'F'
S'right'
p7
g5
tp8
F0.69999999999999996
s(S'G'
g2
g3
tp9
F0.29999999999999999
s(S'*'
g2
g5
tp10
F0.69999999999999996
s(S'B'
g2
g5
tp11
F0.69999999999999996
s(S'D'
g7
g3
tp12
F0.29999999999999999
s(S'D'
g2
g5
tp13
F0.69999999999999996
s(S'D'
g2
g3
tp14
F0.29999999999999999
s(S'G'
g2
g5
tp15
F0.69999999999999996
s(S'D'
g7
g5
tp16
F0.69999999999999996
s(S'A'
g2
g3
tp17
F0.29999999999999999
s(S'*'
g2
g3
tp18
F0.29999999999999999
s(S'G'
g7
g3
tp19
F0.29999999999999999
s(S'F'
g7
g3
tp20
F0.29999999999999999
s(S'A'
g7
g5
tp21
F0.69999999999999996
s(S'E'
g7
g3
tp22
F0.29999999999999999
s(S'C'
g7
g5
tp23
F0.69999999999999996
s(S'C'
g2
g5
tp24
F0.69999999999999996
s(S'F'
g2
g3
tp25
F0.29999999999999999
s(S'E'
g2
g3
tp26
F0.29999999999999999
s(S'E'
g2
g5
tp27
F0.69999999999999996
s(S'B'
g7
g5
tp28
F0.69999999999999996
s(S'*'
g7
g3
tp29
F0.29999999999999999
s(S'C'
g2
g3
tp30
F0.29999999999999999
s(S'C'
g7
g3
tp31
F0.29999999999999999
s(S'*'
g7
g5
tp32
F0.69999999999999996
s(S'B'
g7
g3
tp33
F0.29999999999999999
s(S'E'
g7
g5
tp34
F0.69999999999999996
s(S'F'
g2
g5
tp35
F0.69999999999999996
s(S'A'
g7
g3
tp36
F0.29999999999999999
s(S'G'
g7
g5
tp37
F0.69999999999999996
s.(dp1
(S'B'
S'left'
p2
S'non-adj'
p3
tp4
F0.29999999999999999
s(S'A'
g2
S'adj'
p5
tp6
F0.69999999999999996
s(S'F'
S'right'
p7
g5
tp8
F0.69999999999999996
s(S'G'
g2
g3
tp9
F0.29999999999999999
s(S'*'
g2
g5
tp10
F0.69999999999999996
s(S'B'
g2
g5
tp11
F0.69999999999999996
s(S'D'
g7
g3
tp12
F0.29999999999999999
s(S'D'
g2
g5
tp13
F0.69999999999999996
s(S'D'
g2
g3
tp14
F0.29999999999999999
s(S'G'
g2
g5
tp15
F0.69999999999999996
s(S'D'
g7
g5
tp16
F0.69999999999999996
s(S'A'
g2
g3
tp17
F0.29999999999999999
s(S'*'
g2
g3
tp18
F0.29999999999999999
s(S'G'
g7
g3
tp19
F0.29999999999999999
s(S'F'
g7
g3
tp20
F0.29999999999999999
s(S'A'
g7
g5
tp21
F0.69999999999999996
s(S'E'
g7
g3
tp22
F0.29999999999999999
s(S'C'
g7
g5
tp23
F0.69999999999999996
s(S'C'
g2
g5
tp24
F0.69999999999999996
s(S'F'
g2
g3
tp25
F0.29999999999999999
s(S'E'
g2
g3
tp26
F0.29999999999999999
s(S'E'
g2
g5
tp27
F0.69999999999999996
s(S'B'
g7
g5
tp28
F0.69999999999999996
s(S'*'
g7
g3
tp29
F0.29999999999999999
s(S'C'
g2
g3
tp30
F0.29999999999999999
s(S'C'
g7
g3
tp31
F0.29999999999999999
s(S'*'
g7
g5
tp32
F0.69999999999999996
s(S'B'
g7
g3
tp33
F0.29999999999999999
s(S'E'
g7
g5
tp34
F0.69999999999999996
s(S'F'
g2
g5
tp35
F0.69999999999999996
s(S'A'
g7
g3
tp36
F0.29999999999999999
s(S'G'
g7
g5
tp37
F0.69999999999999996
s.