(dp1
(S'VBD'
S'right'
p2
tp3
(imultinomial
Multinomial
p4
(dp5
S'counts'
p6
ccollections
defaultdict
p7
(c__builtin__
float
p8
tRp9
sS'total'
p10
F0
sS'prob'
p11
g7
(g8
tRp12
S'PRP$'
p13
F0.039265171690817481
sS'VBG'
p14
F0.028991468002139389
sS'VBD'
p15
F0.03969591196782065
sS'VBN'
p16
F0.032952710306350143
sS'VBP'
p17
F0.027066532335081862
sS'WDT'
p18
F0.0082790723954398876
sS'JJ'
p19
F0.024581362647664765
sS'WP'
p20
F0.0066867283683436337
sS'VBZ'
p21
F0.038766994480689543
sS'DT'
p22
F0.041309693795075549
sS'#'
F0.02575972858212398
sS'RP'
p23
F0.00024378810211384935
sS'$'
F0.02340734773847563
sS'NN'
p24
F0.016274934047953941
sS'FW'
p25
F0.025094341331831662
sS'POS'
p26
F0.017699652540721429
sS'TO'
p27
F0.0067225602350848108
sS'PRP'
p28
F0.039405214213165042
sS'RB'
p29
F0.017592082233346951
sS'NNS'
p30
F0.039032853197046129
sS'NNP'
p31
F0.032871858452022444
sS'VB'
p32
F0.031085396305087061
sS'WRB'
p33
F0.043439283012841425
sS'CC'
p34
F0.043434169120551008
sS'LS'
p35
F0.017961320798769397
sS'PDT'
p36
F0.025569880316878457
sS'RBS'
p37
F0.045678202458357096
sS'RBR'
p38
F0.039643180891633545
sS'CD'
p39
F0.021901918960272611
sS'EX'
p40
F0.041000448383235112
sS'IN'
p41
F0.013059493145102229
sS'MD'
p42
F0.023730866373888746
sS'NNPS'
p43
F0.014082487299144176
sS'JJS'
p44
F0.021164167357521555
sS'JJR'
p45
F0.019999908929566781
sS'SYM'
p46
F0.036624398047327401
sS'UH'
p47
F0.029924871936514448
ssbs(S'$'
S'left'
p48
tp49
(imultinomial
Multinomial
p50
(dp51
g6
g7
(g8
tRp52
sg10
F0
sg11
g7
(g8
tRp53
S'PRP$'
p54
F0.043958877222024559
sS'VBG'
p55
F0.023738130858089571
sS'VBD'
p56
F0.046452327922567212
sS'VBN'
p57
F0.0095059883278291145
sS'VBP'
p58
F0.027201078717903789
sS'WDT'
p59
F0.024858563997679523
sS'JJ'
p60
F0.012766019826408619
sS'WP'
p61
F0.020484915690826385
sS'VBZ'
p62
F0.016822507187066692
sS'DT'
p63
F0.043380707649388339
sS'#'
F0.0024212931881703206
sS'RP'
p64
F0.02881147402177401
sS'$'
F0.047198506761582153
sS'NN'
p65
F0.0079082881245032162
sS'FW'
p66
F0.037262303807137381
sS'POS'
p67
F0.047048395488332444
sS'TO'
p68
F0.047888844222113661
sS'PRP'
p69
F0.015362714862492669
sS'RB'
p70
F0.018340313164629678
sS'NNS'
p71
F0.04749952423161112
sS'NNP'
p72
F0.0063668008746244247
sS'VB'
p73
F0.019586445817856624
sS'WRB'
p74
F0.037587400717011971
sS'CC'
p75
F0.033402284789436278
sS'LS'
p76
F0.016295591189330529
sS'PDT'
p77
F0.00072424659863187953
sS'RBS'
p78
F0.037348486115833961
sS'RBR'
p79
F0.039106349377650181
sS'CD'
p80
F0.037985930141691084
sS'EX'
p81
F0.033505208683762493
sS'IN'
p82
F0.0022354823847851308
sS'MD'
p83
F0.048414139799897934
sS'NNPS'
p84
F0.013994961433230058
sS'JJS'
p85
F0.015251361939526635
sS'JJR'
p86
F0.049305185995941032
sS'SYM'
p87
F0.012671944577720667
sS'UH'
p88
F0.027307404290938565
ssbs(S'NNPS'
g2
tp89
(imultinomial
Multinomial
p90
(dp91
g6
g7
(g8
tRp92
sg10
F0
sg11
g7
(g8
tRp93
S'PRP$'
p94
F0.016056514749113595
sS'VBG'
p95
F0.030400306534125555
sS'VBD'
p96
F0.033498415675247702
sS'VBN'
p97
F0.019034724896543488
sS'VBP'
p98
F0.0088932063874072789
sS'WDT'
p99
F0.042880831291318325
sS'JJ'
p100
F0.047867797271239014
sS'WP'
p101
F0.028326926687067513
sS'VBZ'
p102
F0.013071266199611903
sS'DT'
p103
F0.049251597661030551
sS'#'
F0.0036544647800019823
sS'RP'
p104
F0.01579638394831788
sS'$'
F0.045199621874932226
sS'NN'
p105
F0.038570878851706437
sS'FW'
p106
F0.036135314162761042
sS'POS'
p107
F0.046940351265926321
sS'TO'
p108
F0.020206155646046581
sS'PRP'
p109
F0.032590400602258394
sS'RB'
p110
F0.022573834423468879
sS'NNS'
p111
F0.039839467870101619
sS'NNP'
p112
F0.034965588343732167
sS'VB'
p113
F0.0249155412542688
sS'WRB'
p114
F0.02742758160298614
sS'CC'
p115
F0.025257091685613478
sS'LS'
p116
F0.035902368872777042
sS'PDT'
p117
F0.00061839956968322621
sS'RBS'
p118
F0.048162336798953702
sS'RBR'
p119
F0.046489707726799334
sS'CD'
p120
F0.017666135480322819
sS'EX'
p121
F0.029800776749518327
sS'IN'
p122
F0.0070908995660228617
sS'MD'
p123
F0.028702887696961662
sS'NNPS'
p124
F0.0090988621099646026
sS'JJS'
p125
F0.012740952221909321
sS'JJR'
p126
F0.0063876417497797577
sS'SYM'
p127
F0.0089282561281158641
sS'UH'
p128
F0.04505651166436446
ssbs(S'WDT'
g2
tp129
(imultinomial
Multinomial
p130
(dp131
g6
g7
(g8
tRp132
sg10
F0
sg11
g7
(g8
tRp133
S'PRP$'
p134
F0.0044838340709701958
sS'VBG'
p135
F0.04867429437666583
sS'VBD'
p136
F0.015810430235062432
sS'VBN'
p137
F0.01424540257196141
sS'VBP'
p138
F0.019349951218710103
sS'WDT'
p139
F0.034401693735346545
sS'JJ'
p140
F0.017522361878756595
sS'WP'
p141
F0.042338930724295613
sS'VBZ'
p142
F0.011336313357041411
sS'DT'
p143
F0.046000773215912026
sS'#'
F0.019033207088414932
sS'RP'
p144
F0.030987190583189619
sS'$'
F0.050635857604236181
sS'NN'
p145
F0.031400847301441895
sS'FW'
p146
F0.035191251650971797
sS'POS'
p147
F0.012593222100103739
sS'TO'
p148
F0.035234625981223316
sS'PRP'
p149
F0.027292505350207986
sS'RB'
p150
F0.040256536946582704
sS'NNS'
p151
F0.019620369649433339
sS'NNP'
p152
F0.017004082838295222
sS'VB'
p153
F0.011860045841011045
sS'WRB'
p154
F0.024016593651702348
sS'CC'
p155
F0.046644543464142797
sS'LS'
p156
F0.013804169406952336
sS'PDT'
p157
F0.02123403447317836
sS'RBS'
p158
F0.011978169157283674
sS'RBR'
p159
F0.0009716160053977284
sS'CD'
p160
F0.056848056361638255
sS'EX'
p161
F0.0020406266126858554
sS'IN'
p162
F0.014329591855356092
sS'MD'
p163
F0.027390152365528511
sS'NNPS'
p164
F0.015512172132253419
sS'JJS'
p165
F0.034783172285378777
sS'JJR'
p166
F0.056465681987000041
sS'SYM'
p167
F0.047872941367760977
sS'UH'
p168
F0.040834750553906889
ssbs(S'FW'
g2
tp169
(imultinomial
Multinomial
p170
(dp171
g6
g7
(g8
tRp172
sg10
F0
sg11
g7
(g8
tRp173
S'PRP$'
p174
F1.2852839275914916e-05
sS'VBG'
p175
F0.012783570542326523
sS'VBD'
p176
F0.036617226441427897
sS'VBN'
p177
F0.055168538015494095
sS'VBP'
p178
F0.0067853413463313831
sS'WDT'
p179
F0.0096564849916336033
sS'JJ'
p180
F0.015968682487458658
sS'WP'
p181
F0.031093715419006879
sS'VBZ'
p182
F0.041167609181530354
sS'DT'
p183
F0.048867201328005185
sS'#'
F0.013304786916908271
sS'RP'
p184
F0.033354571862400061
sS'$'
F0.032636611407353931
sS'NN'
p185
F0.0066951421692471869
sS'FW'
p186
F0.024569603111939106
sS'POS'
p187
F0.019100982925373888
sS'TO'
p188
F0.033372556602896467
sS'PRP'
p189
F0.0029114765736852448
sS'RB'
p190
F0.019963565220466942
sS'NNS'
p191
F0.031609681157908902
sS'NNP'
p192
F0.039647459557332024
sS'VB'
p193
F0.04471828746770725
sS'WRB'
p194
F0.028430146878255545
sS'CC'
p195
F0.054169882324001918
sS'LS'
p196
F0.012680796103479702
sS'PDT'
p197
F0.028175520634176526
sS'RBS'
p198
F0.026670635466561864
sS'RBR'
p199
F0.036346427412050124
sS'CD'
p200
F0.00063594239360094363
sS'EX'
p201
F0.041959359620583794
sS'IN'
p202
F0.040220428151496693
sS'MD'
p203
F0.023879931406542262
sS'NNPS'
p204
F0.022074624106772817
sS'JJS'
p205
F0.0063152422772451196
sS'JJR'
p206
F0.029981038288584973
sS'SYM'
p207
F0.054555427962006513
sS'UH'
p208
F0.033898649408931406
ssbs(S'CD'
g2
tp209
(imultinomial
Multinomial
p210
(dp211
g6
g7
(g8
tRp212
sg10
F0
sg11
g7
(g8
tRp213
S'PRP$'
p214
F0.047229018750197159
sS'VBG'
p215
F0.011351959020844789
sS'VBD'
p216
F0.027479881694297076
sS'VBN'
p217
F0.0021152050472102186
sS'VBP'
p218
F0.0039305012240615838
sS'WDT'
p219
F0.0031071338813588173
sS'JJ'
p220
F0.032440503140904048
sS'WP'
p221
F0.038733252707238472
sS'VBZ'
p222
F0.042526034402451784
sS'DT'
p223
F0.047379738508081741
sS'#'
F0.036509961649118877
sS'RP'
p224
F0.025773998742277513
sS'$'
F0.040443821016708348
sS'NN'
p225
F0.046751668837816854
sS'FW'
p226
F0.012967318962777374
sS'POS'
p227
F0.035937729311336722
sS'TO'
p228
F0.032343107478032172
sS'PRP'
p229
F0.021646392644214234
sS'RB'
p230
F0.0022550855594690015
sS'NNS'
p231
F0.014377018252571561
sS'NNP'
p232
F0.044320162244386535
sS'VB'
p233
F0.042393141869317454
sS'WRB'
p234
F0.020855403920460144
sS'CC'
p235
F0.0049228860275785631
sS'LS'
p236
F0.026419442933980908
sS'PDT'
p237
F0.035764619601599816
sS'RBS'
p238
F0.046246646500500033
sS'RBR'
p239
F0.029529067607865965
sS'CD'
p240
F0.027882567058890743
sS'EX'
p241
F0.021917604949917485
sS'IN'
p242
F0.044316174161177391
sS'MD'
p243
F0.016441381174547562
sS'NNPS'
p244
F0.038542833253704396
sS'JJS'
p245
F0.0059691745436666853
sS'JJR'
p246
F0.016300348379924365
sS'SYM'
p247
F0.04003392527422063
sS'UH'
p248
F0.012845289667293116
ssbs(S'*'
S'right'
tp249
(imultinomial
Multinomial
p250
(dp251
g6
g7
(g8
tRp252
sg10
F0
sg11
g7
(g8
tRp253
S'PRP$'
p254
F0.019350293234750876
sS'VBG'
p255
F0.016366614029214136
sS'FW'
p256
F0.003763046739260176
sS'VBN'
p257
F0.0037942747374282897
sS'VBP'
p258
F0.042777018737356558
sS'WDT'
p259
F0.050780241981321306
sS'JJ'
p260
F0.0313298908686237
sS'WP'
p261
F0.033977336731908662
sS'VBZ'
p262
F0.014120502992774397
sS'DT'
p263
F0.040783266224439403
sS'#'
F0.017122690207393612
sS'RP'
p264
F0.027374548934012356
sS'$'
F0.016261526376438684
sS'NN'
p265
F0.03831790148046605
sS'VBD'
p266
F0.048755771223857575
sS'POS'
p267
F0.024302509616696694
sS'TO'
p268
F0.039405494056453549
sS'PRP'
p269
F0.05372399771598764
sS'RB'
p270
F0.038030014925051273
sS'NNS'
p271
F0.034314053106308917
sS'LS'
p272
F0.004164027487818525
sS'VB'
p273
F0.043555402951793463
sS'WRB'
p274
F0.046432001542253125
sS'CC'
p275
F0.03220387937105354
sS'PDT'
p276
F0.01059733466008767
sS'RBS'
p277
F0.049390972806503959
sS'RBR'
p278
F0.0035077542590632193
sS'CD'
p279
F0.019679074249017485
sS'EX'
p280
F0.053025885867048941
sS'IN'
p281
F0.026493767913192384
sS'MD'
p282
F0.010560570681170844
sS'NNPS'
p283
F0.0037284581309869752
sS'JJS'
p284
F0.012872870829326564
sS'JJR'
p285
F0.011161778361004843
sS'SYM'
p286
F0.025366966487432224
sS'UH'
p287
F0.0064187831805151852
sS'NNP'
p288
F0.046189477301987282
ssbs(S'CC'
g48
tp289
(imultinomial
Multinomial
p290
(dp291
g6
g7
(g8
tRp292
sg10
F0
sg11
g7
(g8
tRp293
S'PRP$'
p294
F0.049300181449803832
sS'VBG'
p295
F0.029331623877904393
sS'VBD'
p296
F0.027368683724989143
sS'VBN'
p297
F0.00051032952591107978
sS'VBP'
p298
F0.0028142539665888576
sS'WDT'
p299
F0.0041317753164303627
sS'JJ'
p300
F0.021734966346666725
sS'WP'
p301
F0.0065254214894923824
sS'VBZ'
p302
F0.04010798494773913
sS'DT'
p303
F0.0068218656273432874
sS'#'
F0.038003574943138739
sS'RP'
p304
F0.02070916518069553
sS'$'
F0.02520766924531697
sS'NN'
p305
F0.017340933655002101
sS'FW'
p306
F0.037643757701659251
sS'POS'
p307
F0.014761981803678645
sS'TO'
p308
F0.031539629317037174
sS'PRP'
p309
F0.045336422960611182
sS'RB'
p310
F0.0094210284192022542
sS'NNS'
p311
F0.040884745552746467
sS'NNP'
p312
F0.019676974179506479
sS'VB'
p313
F0.050735787450795586
sS'WRB'
p314
F0.032394726112467909
sS'CC'
p315
F0.047408864170000467
sS'LS'
p316
F0.042722535766592865
sS'PDT'
p317
F0.015532525217279384
sS'RBS'
p318
F0.0134439004001195
sS'RBR'
p319
F0.026940303276535085
sS'CD'
p320
F0.015459801690317869
sS'EX'
p321
F0.026849167265006114
sS'IN'
p322
F0.035289123034952137
sS'MD'
p323
F0.042143889770022321
sS'NNPS'
p324
F0.0048283044018585667
sS'JJS'
p325
F0.040184982835811608
sS'JJR'
p326
F0.030491727052158527
sS'SYM'
p327
F0.0413138127673877
sS'UH'
p328
F0.045087579557230306
ssbs(S'PRP'
g2
tp329
(imultinomial
Multinomial
p330
(dp331
g6
g7
(g8
tRp332
sg10
F0
sg11
g7
(g8
tRp333
S'PRP$'
p334
F0.00017420866130975749
sS'VBG'
p335
F0.026865445623194786
sS'VBD'
p336
F0.02134521656410172
sS'VBN'
p337
F0.045017771620234084
sS'VBP'
p338
F0.010822145947273461
sS'WDT'
p339
F0.052903588035848874
sS'JJ'
p340
F0.01116344984858285
sS'WP'
p341
F0.040302299967473303
sS'VBZ'
p342
F0.032356989787822713
sS'DT'
p343
F0.037709271249025816
sS'#'
F0.010848100203142223
sS'RP'
p344
F0.034678107652241982
sS'$'
F0.01720314808995764
sS'NN'
p345
F0.025725493520771359
sS'FW'
p346
F0.054920082293998321
sS'POS'
p347
F0.042530103596300176
sS'TO'
p348
F0.044689817030700164
sS'PRP'
p349
F0.010158046707302748
sS'RB'
p350
F0.0010336047679257523
sS'NNS'
p351
F0.019295268430391251
sS'NNP'
p352
F0.0096417319312440426
sS'VB'
p353
F0.03854421203186803
sS'WRB'
p354
F0.020209079292276957
sS'CC'
p355
F0.031108624743000138
sS'LS'
p356
F0.027504178843921263
sS'PDT'
p357
F0.047472250004885336
sS'RBS'
p358
F0.031147250652157048
sS'RBR'
p359
F0.024157980446930068
sS'CD'
p360
F0.05466567605865702
sS'EX'
p361
F0.04714468290224804
sS'IN'
p362
F0.0077685325405622034
sS'MD'
p363
F0.033385502485818487
sS'NNPS'
p364
F0.0029823497369210901
sS'JJS'
p365
F0.0036835481062927247
sS'JJR'
p366
F0.049524944757671614
sS'SYM'
p367
F0.0080622000678248519
sS'UH'
p368
F0.023255095800122326
ssbs(S'DT'
g48
tp369
(imultinomial
Multinomial
p370
(dp371
g6
g7
(g8
tRp372
sg10
F0
sg11
g7
(g8
tRp373
S'PRP$'
p374
F0.0098008500325066153
sS'VBG'
p375
F0.043237307060743843
sS'VBD'
p376
F0.016235845099831392
sS'VBN'
p377
F0.020028540518416925
sS'VBP'
p378
F0.03770936947048719
sS'WDT'
p379
F0.032573961922391231
sS'JJ'
p380
F0.0073133659177293678
sS'WP'
p381
F0.028502680781718501
sS'VBZ'
p382
F0.04499719243312305
sS'DT'
p383
F0.031109564650156758
sS'#'
F0.015930013796446037
sS'RP'
p384
F0.038981242323081623
sS'$'
F0.018643940901530959
sS'NN'
p385
F0.042870173847518227
sS'FW'
p386
F0.038127137036688893
sS'POS'
p387
F0.013853139601153135
sS'TO'
p388
F0.047236182567336901
sS'PRP'
p389
F0.04615405699463767
sS'RB'
p390
F0.013086202531864877
sS'NNS'
p391
F0.03277380484901473
sS'NNP'
p392
F0.0024058233447295722
sS'VB'
p393
F0.052132097705068207
sS'WRB'
p394
F0.022141707472445135
sS'CC'
p395
F0.0068245010282576603
sS'LS'
p396
F0.0024899287050831114
sS'PDT'
p397
F0.022612562935387229
sS'RBS'
p398
F0.020471201017183201
sS'RBR'
p399
F0.04417186775314505
sS'CD'
p400
F0.024183123723674642
sS'EX'
p401
F0.01359139003741465
sS'IN'
p402
F0.02001951573549
sS'MD'
p403
F0.045673816429160685
sS'NNPS'
p404
F0.057777468469508167
sS'JJS'
p405
F0.059739916398772075
sS'JJR'
p406
F0.00029297004458223003
sS'SYM'
p407
F0.024173779555472369
sS'UH'
p408
F0.0021337573082478262
ssbs(S'WP'
g2
tp409
(imultinomial
Multinomial
p410
(dp411
g6
g7
(g8
tRp412
sg10
F0
sg11
g7
(g8
tRp413
S'PRP$'
p414
F0.040912289097855145
sS'VBG'
p415
F0.030513465148900135
sS'VBD'
p416
F0.038934041343346312
sS'VBN'
p417
F0.019923190714561081
sS'VBP'
p418
F0.027643442012236546
sS'WDT'
p419
F0.049452845327613022
sS'JJ'
p420
F0.003492610931313281
sS'WP'
p421
F0.019365182496565627
sS'VBZ'
p422
F0.044936155443505904
sS'DT'
p423
F0.02427445177701457
sS'#'
F0.0038863244982505515
sS'RP'
p424
F0.015508501484827563
sS'$'
F0.046422660961372569
sS'NN'
p425
F0.025970810677485402
sS'FW'
p426
F0.018376698283689423
sS'POS'
p427
F0.029501646509170223
sS'TO'
p428
F0.013131768764884474
sS'PRP'
p429
F0.037765886440400402
sS'RB'
p430
F0.0010497821909642908
sS'NNS'
p431
F0.0030906272186079849
sS'NNP'
p432
F0.047092493848544213
sS'VB'
p433
F0.026358386516688568
sS'WRB'
p434
F0.003564148096188509
sS'CC'
p435
F0.020199692034417415
sS'LS'
p436
F0.047499229698152415
sS'PDT'
p437
F0.0049604607245387925
sS'RBS'
p438
F0.0065442454436719652
sS'RBR'
p439
F0.032319952155843559
sS'CD'
p440
F0.03257835649117849
sS'EX'
p441
F0.011345981868638114
sS'IN'
p442
F0.046433935876709659
sS'MD'
p443
F0.048055163659379722
sS'NNPS'
p444
F0.042899188852081098
sS'JJS'
p445
F0.036983162512676568
sS'JJR'
p446
F0.013108944397279781
sS'SYM'
p447
F0.042877355327069572
sS'UH'
p448
F0.04302692117437696
ssbs(S'JJS'
g48
tp449
(imultinomial
Multinomial
p450
(dp451
g6
g7
(g8
tRp452
sg10
F0
sg11
g7
(g8
tRp453
S'PRP$'
p454
F0.022510724017007152
sS'VBG'
p455
F0.036155284114368053
sS'VBD'
p456
F0.038320758289876994
sS'VBN'
p457
F0.0080937625700247366
sS'VBP'
p458
F0.037957627313526879
sS'WDT'
p459
F0.0031242003724170873
sS'JJ'
p460
F0.014311282974850226
sS'WP'
p461
F0.045051701406842476
sS'VBZ'
p462
F0.042521165892778524
sS'DT'
p463
F0.020425257391483414
sS'#'
F0.048452175328128858
sS'RP'
p464
F0.0079210349010165916
sS'$'
F0.0048056508241039264
sS'NN'
p465
F0.0099077227263322815
sS'FW'
p466
F0.010809287236525961
sS'POS'
p467
F0.032243671066474348
sS'TO'
p468
F0.044692759394886754
sS'PRP'
p469
F0.0073024091833516405
sS'RB'
p470
F0.010352856488186485
sS'NNS'
p471
F0.035732904109877943
sS'NNP'
p472
F0.033891054133215151
sS'VB'
p473
F0.0084750807124445507
sS'WRB'
p474
F0.031527882394739519
sS'CC'
p475
F0.020653487631348246
sS'LS'
p476
F0.034212005541965552
sS'PDT'
p477
F0.00013432225354694194
sS'RBS'
p478
F0.044532099395601051
sS'RBR'
p479
F0.021228595602996506
sS'CD'
p480
F0.033689665708053353
sS'EX'
p481
F0.017685799362723569
sS'IN'
p482
F0.034776647228840746
sS'MD'
p483
F0.046705574018524258
sS'NNPS'
p484
F0.032627458175758177
sS'JJS'
p485
F0.033870842840469262
sS'JJR'
p486
F0.04168653888305688
sS'SYM'
p487
F0.048502923190763769
sS'UH'
p488
F0.035107787323892206
ssbs(S'VB'
g2
tp489
(imultinomial
Multinomial
p490
(dp491
g6
g7
(g8
tRp492
sg10
F0
sg11
g7
(g8
tRp493
S'PRP$'
p494
F0.047883166918521188
sS'VBG'
p495
F0.00092124998546506455
sS'VBD'
p496
F0.031546262418835069
sS'VBN'
p497
F0.039079834545378049
sS'VBP'
p498
F0.01280182992715417
sS'WDT'
p499
F0.051334129748560747
sS'JJ'
p500
F0.039590056863685927
sS'WP'
p501
F0.023615749953969499
sS'VBZ'
p502
F0.02701437569471252
sS'DT'
p503
F0.013160492299966717
sS'#'
F0.031462003182278833
sS'RP'
p504
F0.040191746725267756
sS'$'
F0.017767608032334261
sS'NN'
p505
F0.013840064603447841
sS'FW'
p506
F0.049911563683496973
sS'POS'
p507
F0.023465459724129435
sS'TO'
p508
F0.032633511395134387
sS'PRP'
p509
F0.032814562924890975
sS'RB'
p510
F0.013082639315118426
sS'NNS'
p511
F0.02194536339678161
sS'NNP'
p512
F0.023523979549198205
sS'VB'
p513
F0.017701404068480663
sS'WRB'
p514
F0.0045992169863410745
sS'CC'
p515
F0.049887119687774213
sS'LS'
p516
F0.0097254663438672458
sS'PDT'
p517
F0.024282053874439779
sS'RBS'
p518
F0.023885717150035776
sS'RBR'
p519
F0.05171813164885624
sS'CD'
p520
F0.053370723670660689
sS'EX'
p521
F0.036192482411593674
sS'IN'
p522
F0.009965099360070168
sS'MD'
p523
F0.009010768933642048
sS'NNPS'
p524
F0.0022511698501013534
sS'JJS'
p525
F0.031291582720079585
sS'JJR'
p526
F0.040054355055167142
sS'SYM'
p527
F0.0033131613200835667
sS'UH'
p528
F0.045165896030479089
ssbs(S'RP'
g2
tp529
(imultinomial
Multinomial
p530
(dp531
g6
g7
(g8
tRp532
sg10
F0
sg11
g7
(g8
tRp533
S'PRP$'
p534
F0.011518123650426296
sS'VBG'
p535
F0.027427579937256974
sS'VBD'
p536
F0.043463150584180835
sS'VBN'
p537
F0.038844503101423206
sS'VBP'
p538
F0.018420304597
sS'WDT'
p539
F0.0082225699103533421
sS'JJ'
p540
F0.018947780118372309
sS'WP'
p541
F0.00093236514561415137
sS'VBZ'
p542
F0.014735636196270718
sS'DT'
p543
F0.048416155613148916
sS'#'
F0.0011472747255715115
sS'RP'
p544
F0.036699006374780047
sS'$'
F0.0034700701941918605
sS'NN'
p545
F0.049993214491207472
sS'FW'
p546
F0.018608310922827366
sS'POS'
p547
F0.0045889737826901658
sS'TO'
p548
F0.047197128722347499
sS'PRP'
p549
F0.0094538153979292234
sS'RB'
p550
F0.046616806189256482
sS'NNS'
p551
F0.056435869456012241
sS'NNP'
p552
F0.035239562767170877
sS'VB'
p553
F0.023493534349076511
sS'WRB'
p554
F0.046540466927154071
sS'CC'
p555
F0.022992127813722514
sS'LS'
p556
F0.054063728603889513
sS'PDT'
p557
F0.024187109989960282
sS'RBS'
p558
F0.034755524747188217
sS'RBR'
p559
F0.044172871904772815
sS'CD'
p560
F0.0033675463082950613
sS'EX'
p561
F0.012442764112863417
sS'IN'
p562
F0.044982241140153874
sS'MD'
p563
F0.043979405126986164
sS'NNPS'
p564
F0.010001911482801017
sS'JJS'
p565
F0.010859512001613617
sS'JJR'
p566
F0.025719974836854252
sS'SYM'
p567
F0.0053044367513756527
sS'UH'
p568
F0.052758642025261218
ssbs(S'RP'
g48
tp569
(imultinomial
Multinomial
p570
(dp571
g6
g7
(g8
tRp572
sg10
F0
sg11
g7
(g8
tRp573
S'PRP$'
p574
F0.010571004766305105
sS'VBG'
p575
F0.028870717804568548
sS'VBD'
p576
F0.042926429094762547
sS'VBN'
p577
F0.012105819659089497
sS'VBP'
p578
F0.0013697339650219828
sS'WDT'
p579
F0.027831889714098428
sS'JJ'
p580
F0.048779987578755783
sS'WP'
p581
F0.031620334942755797
sS'VBZ'
p582
F0.038991046969749962
sS'DT'
p583
F0.035697822905837076
sS'#'
F0.029671323014670997
sS'RP'
p584
F0.0046226634129971529
sS'$'
F0.052006582901100593
sS'NN'
p585
F0.036774597046102211
sS'FW'
p586
F0.0075946394743753552
sS'POS'
p587
F0.022794785116354174
sS'TO'
p588
F0.051307155068691851
sS'PRP'
p589
F0.048586879384076277
sS'RB'
p590
F0.023854910821462464
sS'NNS'
p591
F0.0068043592146448178
sS'NNP'
p592
F0.0023387225299322579
sS'VB'
p593
F0.030834584080923651
sS'WRB'
p594
F0.016666179377165333
sS'CC'
p595
F0.036573592589451254
sS'LS'
p596
F0.049444610829169185
sS'PDT'
p597
F0.038221993523034702
sS'RBS'
p598
F0.013071360472391578
sS'RBR'
p599
F0.0039079557367691781
sS'CD'
p600
F0.010116990800091749
sS'EX'
p601
F0.047126903482524851
sS'IN'
p602
F0.025925425108240221
sS'MD'
p603
F0.002465602965326386
sS'NNPS'
p604
F0.037107620834059468
sS'JJS'
p605
F0.029680661699214978
sS'JJR'
p606
F0.015835211505305962
sS'SYM'
p607
F0.029937933230018979
sS'UH'
p608
F0.047961968380959737
ssbs(S'RBR'
g48
tp609
(imultinomial
Multinomial
p610
(dp611
g6
g7
(g8
tRp612
sg10
F0
sg11
g7
(g8
tRp613
S'PRP$'
p614
F0.02945991881209227
sS'VBG'
p615
F0.045066798577836367
sS'VBD'
p616
F0.044100233941470147
sS'VBN'
p617
F0.0081700622313228364
sS'VBP'
p618
F0.023313358260796505
sS'WDT'
p619
F0.03586644960852732
sS'JJ'
p620
F0.0051566895241704613
sS'WP'
p621
F0.01437120183329344
sS'VBZ'
p622
F0.044215408294790051
sS'DT'
p623
F0.030409531234193973
sS'#'
F0.043260030258570205
sS'RP'
p624
F0.044975610249160532
sS'$'
F0.040888777190206137
sS'NN'
p625
F0.038599516178589303
sS'FW'
p626
F0.033764491035902018
sS'POS'
p627
F0.012496661421289449
sS'TO'
p628
F0.025814271729134121
sS'PRP'
p629
F0.00062198940917162484
sS'RB'
p630
F0.013625726146253226
sS'NNS'
p631
F0.040458072802942259
sS'NNP'
p632
F0.032386570049994789
sS'VB'
p633
F0.00090830717808497235
sS'WRB'
p634
F0.023780223663748268
sS'CC'
p635
F0.00048672743542592714
sS'LS'
p636
F0.0086296462690697313
sS'PDT'
p637
F0.026862036074174572
sS'RBS'
p638
F0.042104510070223512
sS'RBR'
p639
F0.046561674779323894
sS'CD'
p640
F0.030635036223078813
sS'EX'
p641
F0.037842509453760609
sS'IN'
p642
F0.043760948411364374
sS'MD'
p643
F0.02146750558309431
sS'NNPS'
p644
F0.012187713501256693
sS'JJS'
p645
F0.01655398195650799
sS'JJR'
p646
F0.039850248021339463
sS'SYM'
p647
F0.035966755393901921
sS'UH'
p648
F0.00538080719593794
ssbs(S'JJS'
g2
tp649
(imultinomial
Multinomial
p650
(dp651
g6
g7
(g8
tRp652
sg10
F0
sg11
g7
(g8
tRp653
S'PRP$'
p654
F0.028163616064155617
sS'VBG'
p655
F0.021914584111434241
sS'VBD'
p656
F0.016938590176855561
sS'VBN'
p657
F0.021646358522860454
sS'VBP'
p658
F0.018451799916173562
sS'WDT'
p659
F0.043732399412185687
sS'JJ'
p660
F0.0071299885019399387
sS'WP'
p661
F0.020107899580316023
sS'VBZ'
p662
F0.035531109866542919
sS'DT'
p663
F0.014678742749829072
sS'#'
F0.0088955495530890841
sS'RP'
p664
F0.037058419367203964
sS'$'
F0.03487244130154632
sS'NN'
p665
F0.028127168020544966
sS'FW'
p666
F0.019423275850833602
sS'POS'
p667
F0.001206088018129222
sS'TO'
p668
F0.014738055480870565
sS'PRP'
p669
F0.02925960994289992
sS'RB'
p670
F0.025071946196524825
sS'NNS'
p671
F0.042499556756088248
sS'NNP'
p672
F0.036547560694631755
sS'VB'
p673
F0.041681223733865159
sS'WRB'
p674
F0.020199623615632031
sS'CC'
p675
F0.024342647983811787
sS'LS'
p676
F0.036609474286943763
sS'PDT'
p677
F0.047188439302763951
sS'RBS'
p678
F0.03473552573615056
sS'RBR'
p679
F0.012430404606401647
sS'CD'
p680
F0.015435321003178746
sS'EX'
p681
F0.035058150900835895
sS'IN'
p682
F0.043422396525541113
sS'MD'
p683
F0.020062619153453084
sS'NNPS'
p684
F0.041802360747757228
sS'JJS'
p685
F0.034267221365248533
sS'JJR'
p686
F0.042722160254976105
sS'SYM'
p687
F0.0056482904291968623
sS'UH'
p688
F0.038399380269587988
ssbs(S'MD'
g48
tp689
(imultinomial
Multinomial
p690
(dp691
g6
g7
(g8
tRp692
sg10
F0
sg11
g7
(g8
tRp693
S'PRP$'
p694
F0.046349991757304289
sS'VBG'
p695
F0.051755579320575458
sS'VBD'
p696
F0.0070797435511000548
sS'VBN'
p697
F0.039281220922001002
sS'VBP'
p698
F0.013826344569246611
sS'WDT'
p699
F0.043429975220066218
sS'JJ'
p700
F0.040763440572086314
sS'WP'
p701
F0.0017013568726125278
sS'VBZ'
p702
F0.025182366934736484
sS'DT'
p703
F0.038072786740177299
sS'#'
F0.043635793195868057
sS'RP'
p704
F0.036028528142725301
sS'$'
F0.031907223744395807
sS'NN'
p705
F0.025706884908874177
sS'FW'
p706
F0.011709717464603964
sS'POS'
p707
F0.021949746157619247
sS'TO'
p708
F0.0053624404288695826
sS'PRP'
p709
F0.0015279803287667453
sS'RB'
p710
F0.014526728308055388
sS'NNS'
p711
F0.0063318846965810267
sS'NNP'
p712
F0.038398242809874202
sS'VB'
p713
F0.01840034631290938
sS'WRB'
p714
F0.019990204058087852
sS'CC'
p715
F0.044868602360039332
sS'LS'
p716
F0.0036758573893222808
sS'PDT'
p717
F0.018422505566411587
sS'RBS'
p718
F0.012579092642986884
sS'RBR'
p719
F0.017870586143663859
sS'CD'
p720
F0.035880302493291709
sS'EX'
p721
F0.048377915843057333
sS'IN'
p722
F0.048114105687983744
sS'MD'
p723
F0.030317420792508536
sS'NNPS'
p724
F0.041864674606038724
sS'JJS'
p725
F0.020780164488383854
sS'JJR'
p726
F0.043166480880657374
sS'SYM'
p727
F0.020445980831719848
sS'UH'
p728
F0.030717783256797686
ssbs(S'CC'
g2
tp729
(imultinomial
Multinomial
p730
(dp731
g6
g7
(g8
tRp732
sg10
F0
sg11
g7
(g8
tRp733
S'PRP$'
p734
F0.015805538879976995
sS'VBG'
p735
F0.052292879928166038
sS'VBD'
p736
F0.0071363610870082469
sS'VBN'
p737
F0.030049498511080391
sS'VBP'
p738
F0.01421817772860901
sS'WDT'
p739
F0.02364082456566546
sS'JJ'
p740
F0.042109285332849834
sS'WP'
p741
F0.020305444431558385
sS'VBZ'
p742
F0.01149527556762263
sS'DT'
p743
F0.051863299101859862
sS'#'
F0.042152786960004317
sS'RP'
p744
F0.010532221333987582
sS'$'
F0.010882397725097503
sS'NN'
p745
F0.011443927253196649
sS'FW'
p746
F0.014081778377254149
sS'POS'
p747
F0.028666170964678148
sS'TO'
p748
F0.041928436573729522
sS'PRP'
p749
F0.038735752334147402
sS'RB'
p750
F0.024101185776094828
sS'NNS'
p751
F0.0037069044373493729
sS'NNP'
p752
F0.030920750950860405
sS'VB'
p753
F0.031204986763468997
sS'WRB'
p754
F0.014778676032184626
sS'CC'
p755
F0.039997489451731719
sS'LS'
p756
F0.035783583374599054
sS'PDT'
p757
F0.0032141627628054052
sS'RBS'
p758
F0.037911369948322178
sS'RBR'
p759
F0.034322601652285872
sS'CD'
p760
F0.049816045650732409
sS'EX'
p761
F0.013279088133976463
sS'IN'
p762
F0.045678020191864316
sS'MD'
p763
F0.042091640895087809
sS'NNPS'
p764
F0.03075778231290132
sS'JJS'
p765
F0.021806367500456246
sS'JJR'
p766
F0.01506301790593936
sS'SYM'
p767
F0.048168656591399774
sS'UH'
p768
F0.010057613011447886
ssbs(S'VBZ'
g2
tp769
(imultinomial
Multinomial
p770
(dp771
g6
g7
(g8
tRp772
sg10
F0
sg11
g7
(g8
tRp773
S'PRP$'
p774
F0.034034783045467414
sS'VBG'
p775
F0.0040637011769417324
sS'VBD'
p776
F0.039150226137246703
sS'VBN'
p777
F0.040522147565534128
sS'VBP'
p778
F0.01844291640811899
sS'WDT'
p779
F0.039238397608743633
sS'JJ'
p780
F0.043271630003817875
sS'WP'
p781
F0.0088787867519510132
sS'VBZ'
p782
F0.033576720348380648
sS'DT'
p783
F0.032372257087491599
sS'#'
F0.0056322430341979009
sS'RP'
p784
F0.0079712888679582712
sS'$'
F0.047810419478312105
sS'NN'
p785
F0.014063507733436851
sS'FW'
p786
F0.0046207737873808748
sS'POS'
p787
F0.023631824807255463
sS'TO'
p788
F0.022865256088855205
sS'PRP'
p789
F0.046427246430204849
sS'RB'
p790
F0.0091598608193082347
sS'NNS'
p791
F0.035042095067148983
sS'NNP'
p792
F0.019337680515848967
sS'VB'
p793
F0.058008373778731408
sS'WRB'
p794
F0.019921799781594206
sS'CC'
p795
F0.055987924339889319
sS'LS'
p796
F0.053562665910161747
sS'PDT'
p797
F0.024323786655776357
sS'RBS'
p798
F0.029467958074457557
sS'RBR'
p799
F0.0091214152112140227
sS'CD'
p800
F0.058376279150843986
sS'EX'
p801
F0.0027074370596004952
sS'IN'
p802
F0.018691916264725553
sS'MD'
p803
F0.013344315068649564
sS'NNPS'
p804
F0.034743661582448689
sS'JJS'
p805
F0.02495271524254189
sS'JJR'
p806
F0.02010310078481713
sS'SYM'
p807
F0.024969993817353923
sS'UH'
p808
F0.021602894513592805
ssbs(S'IN'
g48
tp809
(imultinomial
Multinomial
p810
(dp811
g6
g7
(g8
tRp812
sg10
F0
sg11
g7
(g8
tRp813
S'PRP$'
p814
F0.040337290592023289
sS'VBG'
p815
F0.032626116207519124
sS'VBD'
p816
F0.025547202566808258
sS'VBN'
p817
F0.046418708123752837
sS'VBP'
p818
F0.03191639776106963
sS'WDT'
p819
F0.0098532898219803478
sS'JJ'
p820
F0.032019105945905214
sS'WP'
p821
F0.01039797146278487
sS'VBZ'
p822
F0.044036772463618791
sS'DT'
p823
F0.006825769887075249
sS'#'
F0.034918825444961304
sS'RP'
p824
F0.045171537965789668
sS'$'
F0.029174010873636122
sS'NN'
p825
F0.026551080553123167
sS'FW'
p826
F0.025684428775978239
sS'POS'
p827
F0.010212559014497406
sS'TO'
p828
F0.02565161703454814
sS'PRP'
p829
F0.041608902780216027
sS'RB'
p830
F0.044011028250860125
sS'NNS'
p831
F0.015725413555523652
sS'NNP'
p832
F0.0098183031083015418
sS'VB'
p833
F0.00081490093673577426
sS'WRB'
p834
F0.010878232200243657
sS'CC'
p835
F0.016904809499517851
sS'LS'
p836
F0.051191765043578953
sS'PDT'
p837
F0.00068057093408983328
sS'RBS'
p838
F0.036098141597059513
sS'RBR'
p839
F0.009722958948143786
sS'CD'
p840
F0.017693406413464063
sS'EX'
p841
F0.042766810352965472
sS'IN'
p842
F0.048957469285231835
sS'MD'
p843
F0.01546331191552347
sS'NNPS'
p844
F0.02950973089057923
sS'JJS'
p845
F0.01912137707105039
sS'JJR'
p846
F0.037201896652835777
sS'SYM'
p847
F0.04423883595208291
sS'UH'
p848
F0.030249450116924585
ssbs(S'VBZ'
g48
tp849
(imultinomial
Multinomial
p850
(dp851
g6
g7
(g8
tRp852
sg10
F0
sg11
g7
(g8
tRp853
S'PRP$'
p854
F0.0138579535743829
sS'VBG'
p855
F0.046770427465480359
sS'VBD'
p856
F0.050822809773158499
sS'VBN'
p857
F0.005425556992575048
sS'VBP'
p858
F0.016753642441480317
sS'WDT'
p859
F0.043658297984882334
sS'JJ'
p860
F0.031020227953395593
sS'WP'
p861
F0.053236220552263257
sS'VBZ'
p862
F0.015976002089631774
sS'DT'
p863
F0.0015023563802323168
sS'#'
F0.055545402973534955
sS'RP'
p864
F0.0021665114725742114
sS'$'
F0.0098333745705633645
sS'NN'
p865
F0.044463889726552033
sS'FW'
p866
F0.023527431769589623
sS'POS'
p867
F0.0028554738277010538
sS'TO'
p868
F0.031865504276261634
sS'PRP'
p869
F0.03053777037944224
sS'RB'
p870
F0.013367401892954293
sS'NNS'
p871
F0.0014306681402175806
sS'NNP'
p872
F0.041015354471716593
sS'VB'
p873
F0.022316380805959171
sS'WRB'
p874
F0.056140288829518631
sS'CC'
p875
F0.029631723506392326
sS'LS'
p876
F0.010525453599966513
sS'PDT'
p877
F0.026903832362944195
sS'RBS'
p878
F0.0013911210183401952
sS'RBR'
p879
F0.033643852779993565
sS'CD'
p880
F0.022257007859860466
sS'EX'
p881
F0.0011815260025722708
sS'IN'
p882
F0.031572983788767932
sS'MD'
p883
F0.025888736679609531
sS'NNPS'
p884
F0.020626313796747092
sS'JJS'
p885
F0.042707762364927918
sS'JJR'
p886
F0.041816822070788108
sS'SYM'
p887
F0.04278033448818188
sS'UH'
p888
F0.054983581336840212
ssbs(S'VB'
g48
tp889
(imultinomial
Multinomial
p890
(dp891
g6
g7
(g8
tRp892
sg10
F0
sg11
g7
(g8
tRp893
S'PRP$'
p894
F0.0056725953738124956
sS'VBG'
p895
F0.031854069622782942
sS'VBD'
p896
F0.035121408617036262
sS'VBN'
p897
F0.03948033480991605
sS'VBP'
p898
F0.017499892428252034
sS'WDT'
p899
F0.022655439380647843
sS'JJ'
p900
F0.050331862516318202
sS'WP'
p901
F0.050428914923289922
sS'VBZ'
p902
F0.017327762033975118
sS'DT'
p903
F0.027586829095307717
sS'#'
F0.034687500145797467
sS'RP'
p904
F0.025787527858272475
sS'$'
F0.011858345492814356
sS'NN'
p905
F0.030753788214268864
sS'FW'
p906
F0.0014905022421894275
sS'POS'
p907
F0.043995246426043667
sS'TO'
p908
F0.013688647287536704
sS'PRP'
p909
F0.018715393939088946
sS'RB'
p910
F0.017176147724782573
sS'NNS'
p911
F0.021226234234662539
sS'NNP'
p912
F0.030154986715965181
sS'VB'
p913
F0.011729780758853543
sS'WRB'
p914
F0.028667789420535071
sS'CC'
p915
F0.01563752097199908
sS'LS'
p916
F0.020423146824979997
sS'PDT'
p917
F0.0090181930105633253
sS'RBS'
p918
F0.044094715496706051
sS'RBR'
p919
F0.046937239411701019
sS'CD'
p920
F0.0022227160484501809
sS'EX'
p921
F0.018410823591705101
sS'IN'
p922
F0.00899227625191917
sS'MD'
p923
F0.043000538063650735
sS'NNPS'
p924
F0.012862377821699047
sS'JJS'
p925
F0.051687826393110731
sS'JJR'
p926
F0.050500151038510938
sS'SYM'
p927
F0.048037262715008307
sS'UH'
p928
F0.040284213097846987
ssbs(S'TO'
g2
tp929
(imultinomial
Multinomial
p930
(dp931
g6
g7
(g8
tRp932
sg10
F0
sg11
g7
(g8
tRp933
S'PRP$'
p934
F0.019055633115474403
sS'VBG'
p935
F0.040966401813690476
sS'VBD'
p936
F0.020597577044171526
sS'VBN'
p937
F0.030060742338961048
sS'VBP'
p938
F0.025695053480254457
sS'WDT'
p939
F0.0092773687993513623
sS'JJ'
p940
F0.015965639935757996
sS'WP'
p941
F0.041924635813567673
sS'VBZ'
p942
F0.049036385742663197
sS'DT'
p943
F0.02438510003183237
sS'#'
F0.037468118350264028
sS'RP'
p944
F0.011036718676715825
sS'$'
F0.031415830463757129
sS'NN'
p945
F0.046491684818640085
sS'FW'
p946
F0.02052801938310821
sS'POS'
p947
F0.020950362707256271
sS'TO'
p948
F0.015367083411967094
sS'PRP'
p949
F0.047905689295428634
sS'RB'
p950
F0.042393174161390622
sS'NNS'
p951
F0.018622430637673111
sS'NNP'
p952
F0.055292929004152148
sS'VB'
p953
F0.031600276627858762
sS'WRB'
p954
F0.0070705009521993076
sS'CC'
p955
F0.0046817753837055543
sS'LS'
p956
F0.04283157170399314
sS'PDT'
p957
F0.0092269630411724157
sS'RBS'
p958
F0.04492725077939641
sS'RBR'
p959
F0.026788636361931972
sS'CD'
p960
F0.033890747810940397
sS'EX'
p961
F0.012838790876418005
sS'IN'
p962
F0.0087555352796276457
sS'MD'
p963
F0.016347162097908575
sS'NNPS'
p964
F0.046066713633416308
sS'JJS'
p965
F0.0065399685458128465
sS'JJR'
p966
F0.022488142459830083
sS'SYM'
p967
F0.046760206331824261
sS'UH'
p968
F0.014749179087886947
ssbs(S'WDT'
g48
tp969
(imultinomial
Multinomial
p970
(dp971
g6
g7
(g8
tRp972
sg10
F0
sg11
g7
(g8
tRp973
S'PRP$'
p974
F0.03522415950098623
sS'VBG'
p975
F0.038626140806766032
sS'VBD'
p976
F0.010523319626089061
sS'VBN'
p977
F0.031245375150399633
sS'VBP'
p978
F0.023529496082632561
sS'WDT'
p979
F0.0084709597775928167
sS'JJ'
p980
F0.025317800731650554
sS'WP'
p981
F0.012714376185983282
sS'VBZ'
p982
F0.044590074237704114
sS'DT'
p983
F0.0454481983172252
sS'#'
F0.025358676039394987
sS'RP'
p984
F0.00017586114031758766
sS'$'
F0.043919638048198935
sS'NN'
p985
F0.040016011983181138
sS'FW'
p986
F0.020499411315139576
sS'POS'
p987
F0.014424229683495897
sS'TO'
p988
F0.040256695369992594
sS'PRP'
p989
F0.018432001910948022
sS'RB'
p990
F0.01594231456227365
sS'NNS'
p991
F0.0058990935922415321
sS'NNP'
p992
F0.032755404085915686
sS'VB'
p993
F0.034659545157778714
sS'WRB'
p994
F0.0089947918909697756
sS'CC'
p995
F0.031043433694256307
sS'LS'
p996
F0.037002387334546943
sS'PDT'
p997
F0.043969583768301311
sS'RBS'
p998
F0.04731100907520934
sS'RBR'
p999
F0.0063988441763174961
sS'CD'
p1000
F0.043756869423332699
sS'EX'
p1001
F0.018928047007085686
sS'IN'
p1002
F0.038565695059014811
sS'MD'
p1003
F0.026114451304332219
sS'NNPS'
p1004
F0.036179234663854705
sS'JJS'
p1005
F0.020471758089447442
sS'JJR'
p1006
F0.01984600170490464
sS'SYM'
p1007
F0.010107930725648751
sS'UH'
p1008
F0.04328117877687037
ssbs(S'JJR'
g2
tp1009
(imultinomial
Multinomial
p1010
(dp1011
g6
g7
(g8
tRp1012
sg10
F0
sg11
g7
(g8
tRp1013
S'PRP$'
p1014
F0.038097640347188488
sS'VBG'
p1015
F0.020732190000512067
sS'VBD'
p1016
F0.027877442498065286
sS'VBN'
p1017
F0.011261489469856277
sS'VBP'
p1018
F0.023279624341718212
sS'WDT'
p1019
F0.0098846479420376526
sS'JJ'
p1020
F0.0012506775046276708
sS'WP'
p1021
F0.028747861113614954
sS'VBZ'
p1022
F0.047273024039650821
sS'DT'
p1023
F0.042826319198128161
sS'#'
F0.03326960273991255
sS'RP'
p1024
F0.044422139074339707
sS'$'
F0.020129587638817698
sS'NN'
p1025
F0.0018407557504664972
sS'FW'
p1026
F0.036331762224276372
sS'POS'
p1027
F0.011415316004699961
sS'TO'
p1028
F0.041260807046352425
sS'PRP'
p1029
F0.014378201955102525
sS'RB'
p1030
F0.030579264747487504
sS'NNS'
p1031
F0.0083062732092210219
sS'NNP'
p1032
F0.029644970907765387
sS'VB'
p1033
F8.0140497194585621e-05
sS'WRB'
p1034
F0.029077519619818071
sS'CC'
p1035
F0.029975002642666424
sS'LS'
p1036
F0.017462570618349327
sS'PDT'
p1037
F0.049451620295264592
sS'RBS'
p1038
F0.015617091670954535
sS'RBR'
p1039
F0.039470131254907642
sS'CD'
p1040
F0.043804410499403895
sS'EX'
p1041
F0.048442648051791957
sS'IN'
p1042
F0.0077266175559588682
sS'MD'
p1043
F0.029980552116773057
sS'NNPS'
p1044
F0.036672330354426332
sS'JJS'
p1045
F0.049258984298946699
sS'JJR'
p1046
F0.015646239803224823
sS'SYM'
p1047
F0.023815694700788311
sS'UH'
p1048
F0.040708848265689851
ssbs(S'DT'
g2
tp1049
(imultinomial
Multinomial
p1050
(dp1051
g6
g7
(g8
tRp1052
sg10
F0
sg11
g7
(g8
tRp1053
S'PRP$'
p1054
F0.03471079720236056
sS'VBG'
p1055
F0.036074527466132898
sS'VBD'
p1056
F0.020492682713243837
sS'VBN'
p1057
F0.041639824159492501
sS'VBP'
p1058
F0.03006198525378731
sS'WDT'
p1059
F0.016852021494838484
sS'JJ'
p1060
F0.0043574320380335377
sS'WP'
p1061
F0.010808557041465806
sS'VBZ'
p1062
F0.041736782409867272
sS'DT'
p1063
F0.013352460282878058
sS'#'
F0.039484207360479147
sS'RP'
p1064
F0.016979499428924204
sS'$'
F0.035834972245657563
sS'NN'
p1065
F0.041767556870196142
sS'FW'
p1066
F0.021412213806769567
sS'POS'
p1067
F0.039564671478409502
sS'TO'
p1068
F0.040770815878001625
sS'PRP'
p1069
F0.0056856743987927678
sS'RB'
p1070
F0.031470138514591184
sS'NNS'
p1071
F0.024541454653630865
sS'NNP'
p1072
F0.02964671961966182
sS'VB'
p1073
F0.027950584071865354
sS'WRB'
p1074
F0.037887900042541625
sS'CC'
p1075
F0.027967129881172531
sS'LS'
p1076
F0.030116212086808328
sS'PDT'
p1077
F0.035708103005844434
sS'RBS'
p1078
F0.021589739398296382
sS'RBR'
p1079
F0.014956749203192342
sS'CD'
p1080
F0.01560165307727388
sS'EX'
p1081
F0.038249038280230345
sS'IN'
p1082
F0.03581776870672098
sS'MD'
p1083
F0.022669633022412938
sS'NNPS'
p1084
F0.018869113849669109
sS'JJS'
p1085
F0.032000923655299891
sS'JJR'
p1086
F0.038873689853762258
sS'SYM'
p1087
F0.010572342655006214
sS'UH'
p1088
F0.013924424892688881
ssbs(S'PDT'
g2
tp1089
(imultinomial
Multinomial
p1090
(dp1091
g6
g7
(g8
tRp1092
sg10
F0
sg11
g7
(g8
tRp1093
S'PRP$'
p1094
F0.039063103486060589
sS'VBG'
p1095
F0.0034583464105447897
sS'FW'
p1096
F0.016151900646013784
sS'VBN'
p1097
F0.046295619160882526
sS'VBP'
p1098
F0.0099806639567129596
sS'WDT'
p1099
F0.0097449516105716314
sS'JJ'
p1100
F0.040919365917353019
sS'WP'
p1101
F0.04132995296003257
sS'VBZ'
p1102
F0.04371195300720386
sS'DT'
p1103
F0.033817898677264244
sS'#'
F0.039421314452344633
sS'RP'
p1104
F0.024326765499573376
sS'$'
F0.013326161097885456
sS'NN'
p1105
F0.0014759610729910839
sS'VBD'
p1106
F0.041759839382864684
sS'POS'
p1107
F0.031922049647353033
sS'TO'
p1108
F0.022446198382557167
sS'PRP'
p1109
F0.028352746315340571
sS'RB'
p1110
F0.0220335141939236
sS'NNS'
p1111
F0.040882450861790362
sS'NNP'
p1112
F0.014023005114668344
sS'VB'
p1113
F0.030959295581790249
sS'WRB'
p1114
F0.0032555544344936307
sS'CC'
p1115
F0.032433947857762747
sS'LS'
p1116
F0.031031969928318057
sS'PDT'
p1117
F0.0140295035396624
sS'RBS'
p1118
F0.034155829434327926
sS'RBR'
p1119
F0.038331748741841323
sS'CD'
p1120
F0.035687061119201037
sS'EX'
p1121
F0.033208253473545307
sS'IN'
p1122
F0.041409679648515302
sS'MD'
p1123
F0.038839576442040905
sS'NNPS'
p1124
F0.0026020808640860775
sS'JJS'
p1125
F0.0081680381633716017
sS'JJR'
p1126
F0.040774336079298173
sS'SYM'
p1127
F0.035076335069008181
sS'UH'
p1128
F0.015593027768804817
ssbs(S'EX'
g2
tp1129
(imultinomial
Multinomial
p1130
(dp1131
g6
g7
(g8
tRp1132
sg10
F0
sg11
g7
(g8
tRp1133
S'PRP$'
p1134
F0.048009608637928525
sS'VBG'
p1135
F0.034616193099797091
sS'VBD'
p1136
F0.030634857756676397
sS'VBN'
p1137
F0.0042958793759855151
sS'VBP'
p1138
F0.044746200036851251
sS'WDT'
p1139
F0.022279066587604843
sS'JJ'
p1140
F0.044489576819182669
sS'WP'
p1141
F0.036143599622143412
sS'VBZ'
p1142
F0.053368407984931643
sS'DT'
p1143
F0.013791474746509203
sS'#'
F0.0085188625154120189
sS'RP'
p1144
F0.007063353516609007
sS'$'
F0.026782385747458982
sS'NN'
p1145
F0.018987522461021054
sS'FW'
p1146
F0.014128094693511692
sS'POS'
p1147
F0.035742927642039471
sS'TO'
p1148
F0.051017222714175928
sS'PRP'
p1149
F0.044389044352196448
sS'RB'
p1150
F0.025707206466766174
sS'NNS'
p1151
F0.014944523489664853
sS'NNP'
p1152
F0.040082690693816349
sS'VB'
p1153
F0.045005493509743595
sS'WRB'
p1154
F0.024937513602239884
sS'CC'
p1155
F0.03100123815820684
sS'LS'
p1156
F0.0052533973493647489
sS'PDT'
p1157
F0.0016504563150895957
sS'RBS'
p1158
F0.0070315889977123841
sS'RBR'
p1159
F0.0094087677820252312
sS'CD'
p1160
F0.041930243291674267
sS'EX'
p1161
F0.0069762791420550025
sS'IN'
p1162
F0.019606540457984305
sS'MD'
p1163
F0.042200366393283437
sS'NNPS'
p1164
F0.036142694601410195
sS'JJS'
p1165
F0.044881797805023181
sS'JJR'
p1166
F0.0066076116248303621
sS'SYM'
p1167
F0.04939688461324343
sS'UH'
p1168
F0.0082304273958309724
ssbs(S'LS'
g2
tp1169
(imultinomial
Multinomial
p1170
(dp1171
g6
g7
(g8
tRp1172
sg10
F0
sg11
g7
(g8
tRp1173
S'PRP$'
p1174
F0.043079939914381485
sS'VBG'
p1175
F0.041943203856050215
sS'FW'
p1176
F0.028211770920628002
sS'VBN'
p1177
F0.052267074549718802
sS'VBP'
p1178
F0.018073480788497329
sS'WDT'
p1179
F0.021454842439721653
sS'JJ'
p1180
F0.00051550515472247526
sS'WP'
p1181
F0.050293999388479373
sS'VBZ'
p1182
F0.017230624458534041
sS'DT'
p1183
F0.04596038813381819
sS'#'
F0.011914860622972388
sS'RP'
p1184
F0.049058728363551546
sS'$'
F0.019762069415775591
sS'NN'
p1185
F0.014904990988475267
sS'VBD'
p1186
F0.030283473259054033
sS'POS'
p1187
F0.011251149471379266
sS'TO'
p1188
F0.051802144110140412
sS'PRP'
p1189
F0.051862499918366736
sS'RB'
p1190
F0.044019310765249314
sS'NNS'
p1191
F0.015156400773773797
sS'NNP'
p1192
F0.021653036797907921
sS'VB'
p1193
F0.031724982241943617
sS'WRB'
p1194
F0.019916162171271051
sS'CC'
p1195
F0.022575783033508504
sS'LS'
p1196
F0.019415147087262837
sS'PDT'
p1197
F0.029393230492431244
sS'RBS'
p1198
F0.042092554245243587
sS'RBR'
p1199
F0.013562636667405219
sS'CD'
p1200
F0.010384263141405815
sS'EX'
p1201
F0.055204178600395899
sS'IN'
p1202
F0.0069208101838288179
sS'MD'
p1203
F0.035524852943476563
sS'NNPS'
p1204
F0.029223758068638309
sS'JJS'
p1205
F0.012131212325651088
sS'JJR'
p1206
F0.017085102197454734
sS'SYM'
p1207
F0.012519014149202836
sS'UH'
p1208
F0.0016268183596820822
ssbs(S'RBS'
g48
tp1209
(imultinomial
Multinomial
p1210
(dp1211
g6
g7
(g8
tRp1212
sg10
F0
sg11
g7
(g8
tRp1213
S'PRP$'
p1214
F0.013091534249114542
sS'VBG'
p1215
F0.031547533171755467
sS'FW'
p1216
F0.0064628418570939015
sS'VBN'
p1217
F0.025910169503837358
sS'VBP'
p1218
F0.017949645345433574
sS'WDT'
p1219
F0.0025032500360007239
sS'JJ'
p1220
F0.0050931980678403542
sS'WP'
p1221
F0.01105106998545622
sS'VBZ'
p1222
F0.045721991932347932
sS'DT'
p1223
F0.003940880454671814
sS'#'
F0.030634038028510075
sS'RP'
p1224
F0.054162864428896174
sS'$'
F0.0054401830257333446
sS'NN'
p1225
F0.035775327126170917
sS'VBD'
p1226
F0.048107933413210929
sS'POS'
p1227
F0.029061961389329958
sS'TO'
p1228
F0.032576793125454993
sS'PRP'
p1229
F0.00035519739283136614
sS'RB'
p1230
F0.032128067834920469
sS'NNS'
p1231
F0.013912371267636439
sS'NNP'
p1232
F0.00071305737634795151
sS'VB'
p1233
F0.021410061332841186
sS'WRB'
p1234
F0.0099802391370690212
sS'CC'
p1235
F0.052992100279793022
sS'LS'
p1236
F0.033454637013587446
sS'PDT'
p1237
F0.044931913164106857
sS'RBS'
p1238
F0.054056421445354309
sS'RBR'
p1239
F0.055457103975459388
sS'CD'
p1240
F0.054685794825346051
sS'EX'
p1241
F0.007013009903579585
sS'IN'
p1242
F0.02858168821852599
sS'MD'
p1243
F0.056679474828167702
sS'NNPS'
p1244
F0.029352246465510559
sS'JJS'
p1245
F0.025646409640518647
sS'JJR'
p1246
F0.053749502743910819
sS'SYM'
p1247
F0.0095482837325688436
sS'UH'
p1248
F0.016321204281065749
ssbs(S'UH'
g48
tp1249
(imultinomial
Multinomial
p1250
(dp1251
g6
g7
(g8
tRp1252
sg10
F0
sg11
g7
(g8
tRp1253
S'PRP$'
p1254
F0.011084526683413545
sS'VBG'
p1255
F0.033055484294839496
sS'FW'
p1256
F0.017901614190742494
sS'VBN'
p1257
F0.028600595645908819
sS'VBP'
p1258
F0.050772601690422005
sS'WDT'
p1259
F0.031965440564682174
sS'JJ'
p1260
F0.013230735283226866
sS'WP'
p1261
F0.013503566658751688
sS'VBZ'
p1262
F0.047104170254520066
sS'DT'
p1263
F0.007296059976428502
sS'#'
F0.0063072436592963048
sS'RP'
p1264
F0.0088101049609925139
sS'$'
F0.046113895227143389
sS'NN'
p1265
F0.023623475952550287
sS'VBD'
p1266
F0.0049310567787321843
sS'POS'
p1267
F0.051394633062652392
sS'TO'
p1268
F0.035889829998197391
sS'PRP'
p1269
F0.0085393570565304062
sS'RB'
p1270
F0.029692877566331564
sS'NNS'
p1271
F0.014394248564478086
sS'NNP'
p1272
F0.010365473890026362
sS'VB'
p1273
F0.02700362218210085
sS'WRB'
p1274
F0.041396551216690738
sS'CC'
p1275
F0.039732034924423149
sS'LS'
p1276
F0.0268337822069524
sS'PDT'
p1277
F0.011294425575989546
sS'RBS'
p1278
F0.047628147122682624
sS'RBR'
p1279
F0.032270958083518229
sS'CD'
p1280
F0.032218847647524085
sS'EX'
p1281
F0.037284177234923464
sS'IN'
p1282
F0.031804379546433295
sS'MD'
p1283
F0.004353550995976777
sS'NNPS'
p1284
F0.034390190993014415
sS'JJS'
p1285
F0.023623862068220938
sS'JJR'
p1286
F0.032277672625423408
sS'SYM'
p1287
F0.048978932165312628
sS'UH'
p1288
F0.034331873450946772
ssbs(S'VBP'
g2
tp1289
(imultinomial
Multinomial
p1290
(dp1291
g6
g7
(g8
tRp1292
sg10
F0
sg11
g7
(g8
tRp1293
S'PRP$'
p1294
F0.048957146092229925
sS'VBG'
p1295
F0.049312767093330816
sS'VBD'
p1296
F0.016701147923168833
sS'VBN'
p1297
F0.020903499184282567
sS'VBP'
p1298
F0.0028456613282365913
sS'WDT'
p1299
F0.0046070423891871812
sS'JJ'
p1300
F0.019343399573521311
sS'WP'
p1301
F0.048553835121177953
sS'VBZ'
p1302
F0.034336501516251165
sS'DT'
p1303
F0.00020864855760494374
sS'#'
F0.039305988051640844
sS'RP'
p1304
F0.050190154885034484
sS'$'
F0.010465856760790348
sS'NN'
p1305
F0.026780490079405112
sS'FW'
p1306
F0.015253037960978886
sS'POS'
p1307
F0.01047485335353752
sS'TO'
p1308
F0.023239864474372922
sS'PRP'
p1309
F0.050732018196922926
sS'RB'
p1310
F0.041223995383898225
sS'NNS'
p1311
F0.027524016511521508
sS'NNP'
p1312
F0.045061906477365847
sS'VB'
p1313
F0.016104644967840087
sS'WRB'
p1314
F0.040294909702053815
sS'CC'
p1315
F0.053180054644876636
sS'LS'
p1316
F0.011483119211537895
sS'PDT'
p1317
F0.032827093572622992
sS'RBS'
p1318
F0.023948540355929054
sS'RBR'
p1319
F0.0014215470453974148
sS'CD'
p1320
F0.030366862711438777
sS'EX'
p1321
F0.045678721659127508
sS'IN'
p1322
F0.01506163718385896
sS'MD'
p1323
F0.035827456043530027
sS'NNPS'
p1324
F0.020650634758835586
sS'JJS'
p1325
F0.032606971036594261
sS'JJR'
p1326
F0.0071899067330394983
sS'SYM'
p1327
F0.044388840545428132
sS'UH'
p1328
F0.0029472289134293175
ssbs(S'WRB'
g2
tp1329
(imultinomial
Multinomial
p1330
(dp1331
g6
g7
(g8
tRp1332
sg10
F0
sg11
g7
(g8
tRp1333
S'PRP$'
p1334
F0.012777719860276428
sS'VBG'
p1335
F0.0066515305495567457
sS'VBD'
p1336
F0.011593553622363856
sS'VBN'
p1337
F0.033193737420142665
sS'VBP'
p1338
F0.018991027826173942
sS'WDT'
p1339
F0.011017335485594096
sS'JJ'
p1340
F0.020709776076457603
sS'WP'
p1341
F0.038183513172556902
sS'VBZ'
p1342
F0.030740279355118492
sS'DT'
p1343
F0.044262399120008095
sS'#'
F0.024129040507847258
sS'RP'
p1344
F0.046127616954696006
sS'$'
F0.027678496768538129
sS'NN'
p1345
F0.016329938604160227
sS'FW'
p1346
F0.039404707411889575
sS'POS'
p1347
F0.016571790841849426
sS'TO'
p1348
F0.022050493190028071
sS'PRP'
p1349
F0.052692446073626151
sS'RB'
p1350
F0.014715966804705565
sS'NNS'
p1351
F0.030979333002624659
sS'NNP'
p1352
F0.034056628361554542
sS'VB'
p1353
F0.03152307036146075
sS'WRB'
p1354
F0.03824669143337657
sS'CC'
p1355
F0.021418903501820213
sS'LS'
p1356
F0.024112820949682937
sS'PDT'
p1357
F0.045459493987065364
sS'RBS'
p1358
F0.018444237514429307
sS'RBR'
p1359
F0.025632025295376511
sS'CD'
p1360
F0.026625208424418095
sS'EX'
p1361
F0.011426606753984658
sS'IN'
p1362
F0.031693006248510541
sS'MD'
p1363
F0.02803113980707736
sS'NNPS'
p1364
F0.023762930462929256
sS'JJS'
p1365
F0.025840088442495902
sS'JJR'
p1366
F0.048302065382236692
sS'SYM'
p1367
F0.0093432409148937866
sS'UH'
p1368
F0.037281139510473342
ssbs(S'$'
g2
tp1369
(imultinomial
Multinomial
p1370
(dp1371
g6
g7
(g8
tRp1372
sg10
F0
sg11
g7
(g8
tRp1373
S'PRP$'
p1374
F0.053061534935684808
sS'VBG'
p1375
F0.050184050878416819
sS'VBD'
p1376
F0.021808863574134897
sS'VBN'
p1377
F0.011409894998636675
sS'VBP'
p1378
F0.03518880398216831
sS'WDT'
p1379
F0.018944998380486452
sS'JJ'
p1380
F0.049103693835897695
sS'WP'
p1381
F0.042710932054124677
sS'VBZ'
p1382
F0.0049956422901121945
sS'DT'
p1383
F0.0021738841054442762
sS'#'
F0.0055252789184595625
sS'RP'
p1384
F0.006430402991384569
sS'$'
F0.039837974570210377
sS'NN'
p1385
F0.0082755650032921117
sS'FW'
p1386
F0.047424350388166343
sS'POS'
p1387
F0.049510224371312056
sS'TO'
p1388
F0.040429687901464
sS'PRP'
p1389
F0.039162477297248859
sS'RB'
p1390
F0.009605181261414554
sS'NNS'
p1391
F0.0021793964217183665
sS'NNP'
p1392
F0.0020937820176541218
sS'VB'
p1393
F0.054979202185677083
sS'WRB'
p1394
F0.0035729093899349645
sS'CC'
p1395
F0.031639422365071397
sS'LS'
p1396
F0.032397088007254327
sS'PDT'
p1397
F0.02484380864354091
sS'RBS'
p1398
F0.033556179171844697
sS'RBR'
p1399
F0.041362321668433281
sS'CD'
p1400
F0.04771895793757653
sS'EX'
p1401
F0.044543092727125873
sS'IN'
p1402
F0.043952121766568056
sS'MD'
p1403
F0.031124614653721849
sS'NNPS'
p1404
F0.0077988110878509393
sS'JJS'
p1405
F0.0098861340595405457
sS'JJR'
p1406
F0.0092531449680041764
sS'SYM'
p1407
F0.014332640049400672
sS'UH'
p1408
F0.028982931141023023
ssbs(S'VBG'
g48
tp1409
(imultinomial
Multinomial
p1410
(dp1411
g6
g7
(g8
tRp1412
sg10
F0
sg11
g7
(g8
tRp1413
S'PRP$'
p1414
F0.024461820223447121
sS'VBG'
p1415
F0.03460415386781051
sS'VBD'
p1416
F0.04124966937250335
sS'VBN'
p1417
F0.054682657333344688
sS'VBP'
p1418
F0.00018550475645203387
sS'WDT'
p1419
F0.017032054838332516
sS'JJ'
p1420
F0.03670136364286123
sS'WP'
p1421
F0.031332963244513026
sS'VBZ'
p1422
F0.0094541921753553623
sS'DT'
p1423
F0.047234293873632087
sS'#'
F0.0023864476801985974
sS'RP'
p1424
F0.022879548126651827
sS'$'
F0.045804335678102243
sS'NN'
p1425
F0.035658162287457967
sS'FW'
p1426
F0.0029080690434420829
sS'POS'
p1427
F0.044326903444319644
sS'TO'
p1428
F0.026611294630586074
sS'PRP'
p1429
F0.042932150528208229
sS'RB'
p1430
F0.016368299132673146
sS'NNS'
p1431
F0.035236382234023353
sS'NNP'
p1432
F0.030898360042481209
sS'VB'
p1433
F0.048068991124296398
sS'WRB'
p1434
F0.026267297956598181
sS'CC'
p1435
F0.03326156615800737
sS'LS'
p1436
F0.010605545731443056
sS'PDT'
p1437
F0.0039009387497749072
sS'RBS'
p1438
F0.055429829074657912
sS'RBR'
p1439
F0.024165760083389793
sS'CD'
p1440
F0.024494564953286321
sS'EX'
p1441
F0.04076498510347399
sS'IN'
p1442
F0.017503126267180438
sS'MD'
p1443
F0.031150737619911745
sS'NNPS'
p1444
F0.0024805558552290514
sS'JJS'
p1445
F0.018428817236892606
sS'JJR'
p1446
F0.0010847070746115828
sS'SYM'
p1447
F0.013794339671868215
sS'UH'
p1448
F0.045649611182982212
ssbs(S'POS'
g48
tp1449
(imultinomial
Multinomial
p1450
(dp1451
g6
g7
(g8
tRp1452
sg10
F0
sg11
g7
(g8
tRp1453
S'PRP$'
p1454
F0.047306171372496521
sS'VBG'
p1455
F0.0037387448342767939
sS'VBD'
p1456
F0.044690043111055573
sS'VBN'
p1457
F0.0018067256902660369
sS'VBP'
p1458
F0.034833721303220766
sS'WDT'
p1459
F0.036860747116618874
sS'JJ'
p1460
F0.018332116813350594
sS'WP'
p1461
F0.043894550332095633
sS'VBZ'
p1462
F0.046673500903123687
sS'DT'
p1463
F0.048703270492337573
sS'#'
F0.025452698170870279
sS'RP'
p1464
F0.0030723820158383005
sS'$'
F0.017209998966952422
sS'NN'
p1465
F0.052786185482286231
sS'FW'
p1466
F0.0038623779851738984
sS'POS'
p1467
F0.039896944882360216
sS'TO'
p1468
F0.0010588093622072425
sS'PRP'
p1469
F0.00035744573062964258
sS'RB'
p1470
F0.033536321911239661
sS'NNS'
p1471
F0.009656196074040703
sS'NNP'
p1472
F0.050101529322931111
sS'VB'
p1473
F0.040840142554910641
sS'WRB'
p1474
F0.036097835247686574
sS'CC'
p1475
F0.0073561007858727193
sS'LS'
p1476
F0.048091552774941121
sS'PDT'
p1477
F0.0033677210318172235
sS'RBS'
p1478
F0.014461466291616118
sS'RBR'
p1479
F0.051134760357174569
sS'CD'
p1480
F0.017412840545999786
sS'EX'
p1481
F0.041805321048240446
sS'IN'
p1482
F0.040010953733175432
sS'MD'
p1483
F0.0042961674210617445
sS'NNPS'
p1484
F0.050772655743235001
sS'JJS'
p1485
F0.023162172868384699
sS'JJR'
p1486
F0.02084727463315194
sS'SYM'
p1487
F0.0090296521297421207
sS'UH'
p1488
F0.027482900959618143
ssbs(S'VBD'
g48
tp1489
(imultinomial
Multinomial
p1490
(dp1491
g6
g7
(g8
tRp1492
sg10
F0
sg11
g7
(g8
tRp1493
S'PRP$'
p1494
F0.011289041662077361
sS'VBG'
p1495
F0.0062990300790250978
sS'VBD'
p1496
F0.04394276333091679
sS'VBN'
p1497
F0.026172383753228525
sS'VBP'
p1498
F0.056883081122446937
sS'WDT'
p1499
F0.056159306911991939
sS'JJ'
p1500
F0.043909334522741074
sS'WP'
p1501
F0.010054537458856287
sS'VBZ'
p1502
F0.05018429339444401
sS'DT'
p1503
F0.016771587441010091
sS'#'
F0.0191513744005344
sS'RP'
p1504
F0.03344084733545747
sS'$'
F0.046421100501936499
sS'NN'
p1505
F0.00047629777637583952
sS'FW'
p1506
F0.018292871702355423
sS'POS'
p1507
F0.047245715738024593
sS'TO'
p1508
F0.0096370130415621372
sS'PRP'
p1509
F0.012269251832354271
sS'RB'
p1510
F0.056024992647320637
sS'NNS'
p1511
F0.050629558617858374
sS'NNP'
p1512
F0.0059292343322102838
sS'VB'
p1513
F0.027168133765969337
sS'WRB'
p1514
F0.033705968243015506
sS'CC'
p1515
F0.012060837943115471
sS'LS'
p1516
F0.025774931118827626
sS'PDT'
p1517
F0.026838700873096637
sS'RBS'
p1518
F0.05373437297106768
sS'RBR'
p1519
F0.04253927049435216
sS'CD'
p1520
F0.010588509586120223
sS'EX'
p1521
F0.02725555041198691
sS'IN'
p1522
F0.03733099114731038
sS'MD'
p1523
F0.0028001606554802845
sS'NNPS'
p1524
F0.021803636032421574
sS'JJS'
p1525
F0.0029342405020208011
sS'JJR'
p1526
F0.013377989577756141
sS'SYM'
p1527
F0.013209531258975993
sS'UH'
p1528
F0.027693557815755252
ssbs(S'JJ'
g2
tp1529
(imultinomial
Multinomial
p1530
(dp1531
g6
g7
(g8
tRp1532
sg10
F0
sg11
g7
(g8
tRp1533
S'PRP$'
p1534
F0.040197459416404256
sS'VBG'
p1535
F0.020581724739989656
sS'VBD'
p1536
F0.032604314499787075
sS'VBN'
p1537
F0.021823891455333071
sS'VBP'
p1538
F0.027944551770214186
sS'WDT'
p1539
F0.042154441003526853
sS'JJ'
p1540
F0.014553978819788692
sS'WP'
p1541
F0.040689455724644497
sS'VBZ'
p1542
F0.02093841764913839
sS'DT'
p1543
F0.032811596441296206
sS'#'
F0.029411590502428482
sS'RP'
p1544
F0.044905581343170568
sS'$'
F0.016924712363428181
sS'NN'
p1545
F0.0027550720156380225
sS'FW'
p1546
F0.033108788518240943
sS'POS'
p1547
F0.034175233106771001
sS'TO'
p1548
F0.033784841574481306
sS'PRP'
p1549
F0.03936566372469006
sS'RB'
p1550
F0.043194619423143357
sS'NNS'
p1551
F0.030939065346447563
sS'NNP'
p1552
F0.034526947163259152
sS'VB'
p1553
F0.026796767400534886
sS'WRB'
p1554
F0.027486081984204727
sS'CC'
p1555
F0.001055395260617147
sS'LS'
p1556
F0.014256984769961957
sS'PDT'
p1557
F0.040425139297006578
sS'RBS'
p1558
F0.033626909280266501
sS'RBR'
p1559
F0.029473387819053107
sS'CD'
p1560
F0.042618709057455774
sS'EX'
p1561
F0.00029000494079034977
sS'IN'
p1562
F0.041329648077256538
sS'MD'
p1563
F0.023335609806307205
sS'NNPS'
p1564
F0.03049866263674408
sS'JJS'
p1565
F0.0023226069456023734
sS'JJR'
p1566
F0.0064311660691964275
sS'SYM'
p1567
F0.029709675023724343
sS'UH'
p1568
F0.012951305029456482
ssbs(S'VBP'
g48
tp1569
(imultinomial
Multinomial
p1570
(dp1571
g6
g7
(g8
tRp1572
sg10
F0
sg11
g7
(g8
tRp1573
S'PRP$'
p1574
F0.013750834494247622
sS'VBG'
p1575
F0.050158991931156062
sS'VBD'
p1576
F0.050202629994911298
sS'VBN'
p1577
F0.007597204290540607
sS'VBP'
p1578
F0.053513751378576571
sS'WDT'
p1579
F0.016036531156486511
sS'JJ'
p1580
F0.0040667829474572096
sS'WP'
p1581
F0.025445454135959118
sS'VBZ'
p1582
F5.6997202257991656e-05
sS'DT'
p1583
F0.019683904694646238
sS'#'
F0.039358188709193387
sS'RP'
p1584
F0.038997913761120356
sS'$'
F0.047855069692674355
sS'NN'
p1585
F0.047529506702521346
sS'FW'
p1586
F0.012670057011330829
sS'POS'
p1587
F0.0080499892291774726
sS'TO'
p1588
F0.01530178880633374
sS'PRP'
p1589
F0.045603091096853079
sS'RB'
p1590
F0.021879216060610957
sS'NNS'
p1591
F0.011868403767281785
sS'NNP'
p1592
F0.052742739823343043
sS'VB'
p1593
F0.017703570058966545
sS'WRB'
p1594
F0.041198594313376018
sS'CC'
p1595
F0.028656761381324728
sS'LS'
p1596
F0.0017047752357973488
sS'PDT'
p1597
F0.021205086843217376
sS'RBS'
p1598
F0.016058710115718598
sS'RBR'
p1599
F0.039613875585480719
sS'CD'
p1600
F0.051382519689361451
sS'EX'
p1601
F0.042522290498803968
sS'IN'
p1602
F0.04880176385222823
sS'MD'
p1603
F0.0072842024333886583
sS'NNPS'
p1604
F0.0012366547028532628
sS'JJS'
p1605
F0.021748425047521842
sS'JJR'
p1606
F0.020981127689486605
sS'SYM'
p1607
F0.011092642957436038
sS'UH'
p1608
F0.04643995270835919
ssbs(S'NNS'
g48
tp1609
(imultinomial
Multinomial
p1610
(dp1611
g6
g7
(g8
tRp1612
sg10
F0
sg11
g7
(g8
tRp1613
S'PRP$'
p1614
F0.04787184414174854
sS'VBG'
p1615
F0.005453693494032073
sS'VBD'
p1616
F0.052446022880173977
sS'VBN'
p1617
F0.0012134701486169815
sS'VBP'
p1618
F0.040998692038973834
sS'WDT'
p1619
F0.0024695526341245999
sS'JJ'
p1620
F0.019528869389560489
sS'WP'
p1621
F0.0072393660209952174
sS'VBZ'
p1622
F0.051532848038055426
sS'DT'
p1623
F0.031607484189814648
sS'#'
F0.030184163632781435
sS'RP'
p1624
F0.033624598890958209
sS'$'
F0.03461120918557388
sS'NN'
p1625
F0.026726601447696102
sS'FW'
p1626
F0.040757510249455335
sS'POS'
p1627
F0.029447096439791622
sS'TO'
p1628
F0.036653690210833423
sS'PRP'
p1629
F0.0018148451533122262
sS'RB'
p1630
F0.002432512538993215
sS'NNS'
p1631
F0.057670218382729982
sS'NNP'
p1632
F0.039853097999967821
sS'VB'
p1633
F0.047341444215254845
sS'WRB'
p1634
F0.017075090293837091
sS'CC'
p1635
F0.027325880845416248
sS'LS'
p1636
F0.014527948195904711
sS'PDT'
p1637
F0.018634234398862765
sS'RBS'
p1638
F0.011451411027105297
sS'RBR'
p1639
F0.0076786735990763922
sS'CD'
p1640
F0.0065055906456870831
sS'EX'
p1641
F0.026828236819363218
sS'IN'
p1642
F0.037708438039765417
sS'MD'
p1643
F0.041230313012669613
sS'NNPS'
p1644
F0.033065634133071314
sS'JJS'
p1645
F0.045211760717523704
sS'JJR'
p1646
F0.047691330271782871
sS'SYM'
p1647
F0.015322458522755454
sS'UH'
p1648
F0.0082641681537351137
ssbs(S'POS'
g2
tp1649
(imultinomial
Multinomial
p1650
(dp1651
g6
g7
(g8
tRp1652
sg10
F0
sg11
g7
(g8
tRp1653
S'PRP$'
p1654
F0.039400733545582628
sS'VBG'
p1655
F0.047817993790602198
sS'VBD'
p1656
F0.014986921123235391
sS'VBN'
p1657
F0.017029283719348528
sS'VBP'
p1658
F0.048117106866224703
sS'WDT'
p1659
F0.00046322262107518944
sS'JJ'
p1660
F0.038163584076321123
sS'WP'
p1661
F0.048931922320860341
sS'VBZ'
p1662
F0.049055491320773116
sS'DT'
p1663
F0.038026311122127537
sS'#'
F0.015915790817273966
sS'RP'
p1664
F0.01147103670443868
sS'$'
F0.035033908787082388
sS'NN'
p1665
F0.026576979335611681
sS'FW'
p1666
F0.042664252421580402
sS'POS'
p1667
F0.020937087419559186
sS'TO'
p1668
F0.02587958515606488
sS'PRP'
p1669
F0.0087938695021860681
sS'RB'
p1670
F0.025790990498485936
sS'NNS'
p1671
F0.010444725229711189
sS'NNP'
p1672
F0.045701147691613563
sS'VB'
p1673
F0.018180358374999143
sS'WRB'
p1674
F0.033263077893048533
sS'CC'
p1675
F0.039753143822197939
sS'LS'
p1676
F0.02541917105724192
sS'PDT'
p1677
F0.017270599112030813
sS'RBS'
p1678
F0.04371136192861081
sS'RBR'
p1679
F0.022080457886193887
sS'CD'
p1680
F0.00070854823084518892
sS'EX'
p1681
F0.047518555018786046
sS'IN'
p1682
F0.0035488012015130015
sS'MD'
p1683
F0.0021734724301923623
sS'NNPS'
p1684
F0.044759065316015444
sS'JJS'
p1685
F0.031991319204202298
sS'JJR'
p1686
F0.038970671604583333
sS'SYM'
p1687
F0.0026474702433223122
sS'UH'
p1688
F0.016801982606458109
ssbs(S'#'
g48
tp1689
(imultinomial
Multinomial
p1690
(dp1691
g6
g7
(g8
tRp1692
sg10
F0
sg11
g7
(g8
tRp1693
S'PRP$'
p1694
F0.0031738104190285835
sS'VBG'
p1695
F0.040443835795362704
sS'VBD'
p1696
F0.014648379240842264
sS'VBN'
p1697
F0.033060713580840312
sS'VBP'
p1698
F0.021216387579972799
sS'WDT'
p1699
F0.025794128379581359
sS'JJ'
p1700
F0.031450950015113679
sS'WP'
p1701
F0.051828286401303832
sS'VBZ'
p1702
F0.017232107545914227
sS'DT'
p1703
F0.0013016842762231969
sS'#'
F0.0064169155939979867
sS'RP'
p1704
F0.055796654445425857
sS'$'
F0.051054896693283364
sS'NN'
p1705
F0.040777914297058841
sS'FW'
p1706
F0.045945220221470115
sS'POS'
p1707
F0.0069410391896737884
sS'TO'
p1708
F0.01793237863922079
sS'PRP'
p1709
F0.029186037107685667
sS'RB'
p1710
F0.027001426819578969
sS'NNS'
p1711
F0.031134906442162047
sS'NNP'
p1712
F0.02172509537026858
sS'VB'
p1713
F0.048392587531678515
sS'WRB'
p1714
F0.050682879371605385
sS'CC'
p1715
F0.021007617182287896
sS'LS'
p1716
F0.0098150243878176516
sS'PDT'
p1717
F0.0027091927180909262
sS'RBS'
p1718
F0.0042543863974790616
sS'RBR'
p1719
F0.018762230487721951
sS'CD'
p1720
F0.039785233027478981
sS'EX'
p1721
F0.017259005020745115
sS'IN'
p1722
F0.031814591434711138
sS'MD'
p1723
F0.029356706556833131
sS'NNPS'
p1724
F0.022446325459864302
sS'JJS'
p1725
F0.050296972668109251
sS'JJR'
p1726
F0.032823281982639993
sS'SYM'
p1727
F0.029231024761888408
sS'UH'
p1728
F0.01730017295703903
ssbs(S'PDT'
g48
tp1729
(imultinomial
Multinomial
p1730
(dp1731
g6
g7
(g8
tRp1732
sg10
F0
sg11
g7
(g8
tRp1733
S'PRP$'
p1734
F0.0095952501272830899
sS'VBG'
p1735
F0.04807119264288142
sS'VBD'
p1736
F0.014087391894608175
sS'VBN'
p1737
F0.05050287706036094
sS'VBP'
p1738
F0.019394796056662316
sS'WDT'
p1739
F0.0086827383452895163
sS'JJ'
p1740
F0.019202229410545606
sS'WP'
p1741
F0.010360584226840001
sS'VBZ'
p1742
F0.029839095865777484
sS'DT'
p1743
F0.010262186301942972
sS'#'
F0.0083705062110646846
sS'RP'
p1744
F0.013178343274129178
sS'$'
F0.027838844426774711
sS'NN'
p1745
F0.013258342887812091
sS'FW'
p1746
F0.032902100774792373
sS'POS'
p1747
F0.050560284459111357
sS'TO'
p1748
F0.025156815068973687
sS'PRP'
p1749
F0.043592310999867732
sS'RB'
p1750
F0.0043286266313857045
sS'NNS'
p1751
F7.3208612065701447e-05
sS'NNP'
p1752
F0.04515090872076126
sS'VB'
p1753
F0.022412439590100242
sS'WRB'
p1754
F0.051628344537219248
sS'CC'
p1755
F0.045600826871335029
sS'LS'
p1756
F0.028329018601511456
sS'PDT'
p1757
F0.01805928195948513
sS'RBS'
p1758
F0.021407017617394178
sS'RBR'
p1759
F0.050763715432388626
sS'CD'
p1760
F0.024841992201679937
sS'EX'
p1761
F0.038970233521101946
sS'IN'
p1762
F0.028366816505263123
sS'MD'
p1763
F0.0020472519821885709
sS'NNPS'
p1764
F0.038344143665277899
sS'JJS'
p1765
F0.049803359553517362
sS'JJR'
p1766
F0.033499567935881956
sS'SYM'
p1767
F0.046959989154973139
sS'UH'
p1768
F0.01455736687175231
ssbs(S'UH'
g2
tp1769
(imultinomial
Multinomial
p1770
(dp1771
g6
g7
(g8
tRp1772
sg10
F0
sg11
g7
(g8
tRp1773
S'PRP$'
p1774
F0.018023340352410419
sS'VBG'
p1775
F0.051001551610406516
sS'FW'
p1776
F0.027729661993969611
sS'VBN'
p1777
F0.0027147827959272124
sS'VBP'
p1778
F0.030072686705375131
sS'WDT'
p1779
F0.011160273396330989
sS'JJ'
p1780
F0.0018822154486869986
sS'WP'
p1781
F0.00019653920252478706
sS'VBZ'
p1782
F0.013899247117451016
sS'DT'
p1783
F0.027161200588034649
sS'#'
F0.052307267779029124
sS'RP'
p1784
F0.02060836906287072
sS'$'
F0.024810850047215938
sS'NN'
p1785
F0.048339650401782945
sS'VBD'
p1786
F0.04574189728866563
sS'POS'
p1787
F0.0029069936082179205
sS'TO'
p1788
F0.030032017975434568
sS'PRP'
p1789
F0.052336513553896215
sS'RB'
p1790
F0.030074289374433238
sS'NNS'
p1791
F0.0014925962249607769
sS'NNP'
p1792
F0.049110244118536067
sS'VB'
p1793
F0.026319962836450116
sS'WRB'
p1794
F0.023852188593148121
sS'CC'
p1795
F0.029160790761326938
sS'LS'
p1796
F0.024613390266099915
sS'PDT'
p1797
F0.029657035529062091
sS'RBS'
p1798
F0.033804276634100197
sS'RBR'
p1799
F0.030556959078633917
sS'CD'
p1800
F0.02514984653220512
sS'EX'
p1801
F0.050098848889904374
sS'IN'
p1802
F0.0047352324028555213
sS'MD'
p1803
F0.0088396927530525245
sS'NNPS'
p1804
F0.046528000502357253
sS'JJS'
p1805
F0.049389651358476248
sS'JJR'
p1806
F0.042839406224273832
sS'SYM'
p1807
F0.029284219197515372
sS'UH'
p1808
F0.0035683097943780113
ssbs(S'NN'
g2
tp1809
(imultinomial
Multinomial
p1810
(dp1811
g6
g7
(g8
tRp1812
sg10
F0
sg11
g7
(g8
tRp1813
S'PRP$'
p1814
F0.014948383875671729
sS'VBG'
p1815
F0.035764138802428812
sS'VBD'
p1816
F0.050770106937709399
sS'VBN'
p1817
F0.054376037232745422
sS'VBP'
p1818
F0.031088552970439585
sS'WDT'
p1819
F0.014777822575287522
sS'JJ'
p1820
F0.025035629758574141
sS'WP'
p1821
F0.010857677127106212
sS'VBZ'
p1822
F0.043947717774340221
sS'DT'
p1823
F0.044700949116832138
sS'#'
F0.0024162779765532637
sS'RP'
p1824
F0.034863252492373292
sS'$'
F0.0019854640732280076
sS'NN'
p1825
F0.0062994292786530673
sS'FW'
p1826
F0.0035719508833102279
sS'POS'
p1827
F0.05026089697656691
sS'TO'
p1828
F0.02997293390693203
sS'PRP'
p1829
F0.013915042158866447
sS'RB'
p1830
F0.04467357402315883
sS'NNS'
p1831
F0.049027350845434664
sS'NNP'
p1832
F0.055402638018494405
sS'VB'
p1833
F0.03420257228444086
sS'WRB'
p1834
F0.0027891900231902735
sS'CC'
p1835
F0.014299425373504565
sS'LS'
p1836
F0.028480643464406062
sS'PDT'
p1837
F0.0025590564093876385
sS'RBS'
p1838
F0.01870089375866358
sS'RBR'
p1839
F0.035227470622492839
sS'CD'
p1840
F0.0068111230602944462
sS'EX'
p1841
F0.045395310832455897
sS'IN'
p1842
F0.039679365347495568
sS'MD'
p1843
F0.015669289776834214
sS'NNPS'
p1844
F0.011300784138248008
sS'JJS'
p1845
F0.0038045311143136899
sS'JJR'
p1846
F0.047818696424635834
sS'SYM'
p1847
F0.042121008142894031
sS'UH'
p1848
F0.03248481242203638
ssbs(S'IN'
g2
tp1849
(imultinomial
Multinomial
p1850
(dp1851
g6
g7
(g8
tRp1852
sg10
F0
sg11
g7
(g8
tRp1853
S'PRP$'
p1854
F0.032841950806709673
sS'VBG'
p1855
F0.048188186553005739
sS'VBD'
p1856
F0.019680180088428902
sS'VBN'
p1857
F0.034566445651672308
sS'VBP'
p1858
F0.0049715291734139236
sS'WDT'
p1859
F0.00097624455187944083
sS'JJ'
p1860
F0.046023068621728877
sS'WP'
p1861
F0.00017546699245937441
sS'VBZ'
p1862
F0.027334715786490278
sS'DT'
p1863
F0.038906539603487292
sS'#'
F0.043123924732691617
sS'RP'
p1864
F0.044722638734515534
sS'$'
F0.044808168723817078
sS'NN'
p1865
F0.035359857627604165
sS'FW'
p1866
F0.0077255152534241476
sS'POS'
p1867
F0.036608465551137094
sS'TO'
p1868
F0.022024801690341829
sS'PRP'
p1869
F0.03317061665080244
sS'RB'
p1870
F0.026864529818708766
sS'NNS'
p1871
F0.021571078075114498
sS'NNP'
p1872
F0.0029918839714952166
sS'VB'
p1873
F0.042543240567193233
sS'WRB'
p1874
F0.039960878765840376
sS'CC'
p1875
F0.022048116997822303
sS'LS'
p1876
F0.037304483052034564
sS'PDT'
p1877
F0.03180583940314323
sS'RBS'
p1878
F0.0096055441703207546
sS'RBR'
p1879
F0.0018744005563712256
sS'CD'
p1880
F0.036708640104406491
sS'EX'
p1881
F0.0074753285032202327
sS'IN'
p1882
F0.045291072769315807
sS'MD'
p1883
F0.0030425631802345121
sS'NNPS'
p1884
F0.013722392827363684
sS'JJS'
p1885
F0.045314788824943608
sS'JJR'
p1886
F0.042180757970766009
sS'SYM'
p1887
F0.027914253186621288
sS'UH'
p1888
F0.02057189046147434
ssbs(S'EX'
g48
tp1889
(imultinomial
Multinomial
p1890
(dp1891
g6
g7
(g8
tRp1892
sg10
F0
sg11
g7
(g8
tRp1893
S'PRP$'
p1894
F0.013938008015846808
sS'VBG'
p1895
F0.013127807144018672
sS'FW'
p1896
F0.0082883838706847238
sS'VBN'
p1897
F0.043969394314576978
sS'VBP'
p1898
F0.024072215522499191
sS'WDT'
p1899
F0.026417762599759111
sS'JJ'
p1900
F0.004025072663632342
sS'WP'
p1901
F0.038018703912370458
sS'VBZ'
p1902
F0.023854713179227181
sS'DT'
p1903
F0.025770310752341687
sS'#'
F0.041008964732809093
sS'RP'
p1904
F0.047643314442792704
sS'$'
F0.030584076612278892
sS'NN'
p1905
F0.030950781667087701
sS'VBD'
p1906
F0.023878943313548971
sS'POS'
p1907
F0.023336620018339693
sS'TO'
p1908
F0.051978442282159976
sS'PRP'
p1909
F0.046786581198329534
sS'RB'
p1910
F0.011945553806592896
sS'NNS'
p1911
F0.050423053450746595
sS'NNP'
p1912
F0.020787714913463814
sS'VB'
p1913
F0.039422865820342962
sS'WRB'
p1914
F0.025691343667281794
sS'CC'
p1915
F0.00932987253360619
sS'LS'
p1916
F0.021507296174664944
sS'PDT'
p1917
F0.0055890255518367795
sS'RBS'
p1918
F0.0031906357230173923
sS'RBR'
p1919
F0.032197369664706314
sS'CD'
p1920
F0.028733728878628375
sS'EX'
p1921
F0.020204796158493216
sS'IN'
p1922
F0.018610362971236166
sS'MD'
p1923
F0.035066947518273182
sS'NNPS'
p1924
F0.027770958972924843
sS'JJS'
p1925
F0.027270014518634457
sS'JJR'
p1926
F0.020828603790943097
sS'SYM'
p1927
F0.043946910527213855
sS'UH'
p1928
F0.039832849115089212
ssbs(S'PRP$'
g2
tp1929
(imultinomial
Multinomial
p1930
(dp1931
g6
g7
(g8
tRp1932
sg10
F0
sg11
g7
(g8
tRp1933
S'PRP$'
p1934
F0.036314315527159968
sS'VBG'
p1935
F0.021917689016918113
sS'VBD'
p1936
F0.053284337008572449
sS'VBN'
p1937
F0.033977634832225566
sS'VBP'
p1938
F0.014265728255142296
sS'WDT'
p1939
F0.023373094156881036
sS'JJ'
p1940
F0.0072831286695181682
sS'WP'
p1941
F0.010162327578303437
sS'VBZ'
p1942
F0.037604470870191996
sS'DT'
p1943
F0.05456208200830024
sS'#'
F0.03131414515371974
sS'RP'
p1944
F0.031277620420727445
sS'$'
F0.01362200030901411
sS'NN'
p1945
F0.010252349519679018
sS'FW'
p1946
F0.013869427500092662
sS'POS'
p1947
F0.0052203005573536196
sS'TO'
p1948
F0.052016572279109448
sS'PRP'
p1949
F0.0068378504196848263
sS'RB'
p1950
F2.8743629544947157e-05
sS'NNS'
p1951
F0.039611904515780373
sS'NNP'
p1952
F0.014024450250174129
sS'VB'
p1953
F0.023406286403079745
sS'WRB'
p1954
F0.050315651108230434
sS'CC'
p1955
F0.039191057549170946
sS'LS'
p1956
F0.0047092970433108084
sS'PDT'
p1957
F0.0035643258880485281
sS'RBS'
p1958
F0.0068646785689044001
sS'RBR'
p1959
F0.050938869472007486
sS'CD'
p1960
F0.0017482659937419504
sS'EX'
p1961
F0.04185451479777666
sS'IN'
p1962
F0.037331833321974657
sS'MD'
p1963
F0.029240738521783001
sS'NNPS'
p1964
F0.042112159549034293
sS'JJS'
p1965
F0.052442613443046245
sS'JJR'
p1966
F0.036309225554392872
sS'SYM'
p1967
F0.03992151510902342
sS'UH'
p1968
F0.029228795198380945
ssbs(S'SYM'
g2
tp1969
(imultinomial
Multinomial
p1970
(dp1971
g6
g7
(g8
tRp1972
sg10
F0
sg11
g7
(g8
tRp1973
S'PRP$'
p1974
F0.044179587601927577
sS'VBG'
p1975
F0.029779100952466379
sS'VBD'
p1976
F0.0070189554775424243
sS'VBN'
p1977
F0.015201918754719464
sS'VBP'
p1978
F0.047582496231094444
sS'WDT'
p1979
F0.035888203635955636
sS'JJ'
p1980
F0.038341402945829259
sS'WP'
p1981
F0.0099471899533879575
sS'VBZ'
p1982
F0.013207035308171943
sS'DT'
p1983
F0.017000046602292665
sS'#'
F0.027585306481837792
sS'RP'
p1984
F0.02539488860447825
sS'$'
F0.019532917642608682
sS'NN'
p1985
F0.037472435961719251
sS'FW'
p1986
F0.037603516690578626
sS'POS'
p1987
F0.031991290656090327
sS'TO'
p1988
F0.045003597967236998
sS'PRP'
p1989
F0.019227704071581864
sS'RB'
p1990
F0.0075261032109667303
sS'NNS'
p1991
F0.043761975479091553
sS'NNP'
p1992
F0.041613933669437379
sS'VB'
p1993
F0.029416935954868394
sS'WRB'
p1994
F0.026295791562074323
sS'CC'
p1995
F0.0062444208958405689
sS'LS'
p1996
F0.040883861111392382
sS'PDT'
p1997
F0.02037464436277998
sS'RBS'
p1998
F0.01762007715675697
sS'RBR'
p1999
F0.0042867790972884881
sS'CD'
p2000
F0.038829613355719772
sS'EX'
p2001
F0.013822720095268113
sS'IN'
p2002
F0.041520093020836528
sS'MD'
p2003
F0.045357738755528169
sS'NNPS'
p2004
F0.0062146884268761771
sS'JJS'
p2005
F0.032033688158311917
sS'JJR'
p2006
F0.025957357523627982
sS'SYM'
p2007
F0.0257421398740884
sS'UH'
p2008
F0.030539842749726709
ssbs(S'VBN'
g48
tp2009
(imultinomial
Multinomial
p2010
(dp2011
g6
g7
(g8
tRp2012
sg10
F0
sg11
g7
(g8
tRp2013
S'PRP$'
p2014
F0.05698844603946885
sS'VBG'
p2015
F0.039832783342555293
sS'VBD'
p2016
F0.02414107127022996
sS'VBN'
p2017
F0.033229186774759258
sS'VBP'
p2018
F0.013945946905136919
sS'WDT'
p2019
F0.011532848490719798
sS'JJ'
p2020
F0.022427698035485801
sS'WP'
p2021
F0.054378043449865368
sS'VBZ'
p2022
F0.018800609227230741
sS'DT'
p2023
F0.025186289275569301
sS'#'
F0.013297746089101611
sS'RP'
p2024
F0.018815674681847507
sS'$'
F0.047612311076017114
sS'NN'
p2025
F0.04512756466550092
sS'FW'
p2026
F0.01968464411486931
sS'POS'
p2027
F0.024465693163471712
sS'TO'
p2028
F0.0068734325819079858
sS'PRP'
p2029
F0.052006103372831299
sS'RB'
p2030
F0.02363199969975054
sS'NNS'
p2031
F0.053759439874819702
sS'NNP'
p2032
F0.0079798269304083708
sS'VB'
p2033
F0.044733311833411477
sS'WRB'
p2034
F0.0053874614603046326
sS'CC'
p2035
F0.026899678301828121
sS'LS'
p2036
F0.035515062043267785
sS'PDT'
p2037
F0.021125466680910657
sS'RBS'
p2038
F0.014182095959849742
sS'RBR'
p2039
F0.035691890249377002
sS'CD'
p2040
F0.032464538080643819
sS'EX'
p2041
F0.031061641492631756
sS'IN'
p2042
F0.017204897507148088
sS'MD'
p2043
F0.034484656931879867
sS'NNPS'
p2044
F0.015083027614659031
sS'JJS'
p2045
F0.0051333261565620651
sS'JJR'
p2046
F0.010072821883299127
sS'SYM'
p2047
F0.032877216996172826
sS'UH'
p2048
F0.024365547746506729
ssbs(S'RB'
g48
tp2049
(imultinomial
Multinomial
p2050
(dp2051
g6
g7
(g8
tRp2052
sg10
F0
sg11
g7
(g8
tRp2053
S'PRP$'
p2054
F0.031763096414223813
sS'VBG'
p2055
F0.022669287935215335
sS'VBD'
p2056
F0.0025934765877261763
sS'VBN'
p2057
F0.0016355260413343493
sS'VBP'
p2058
F0.024851457688327399
sS'WDT'
p2059
F0.035069181280136245
sS'JJ'
p2060
F0.02364062703982896
sS'WP'
p2061
F0.047560844820075505
sS'VBZ'
p2062
F0.038799834294933187
sS'DT'
p2063
F0.0241759499963109
sS'#'
F0.023009589379782768
sS'RP'
p2064
F0.028517760399706864
sS'$'
F0.038696023779708821
sS'NN'
p2065
F0.0045341184644366169
sS'FW'
p2066
F0.035592939890027389
sS'POS'
p2067
F0.0077159469576090801
sS'TO'
p2068
F0.0021255271675234451
sS'PRP'
p2069
F0.0023764615783339834
sS'RB'
p2070
F0.035182467988759639
sS'NNS'
p2071
F0.010582566454736502
sS'NNP'
p2072
F0.025231152717079274
sS'VB'
p2073
F0.040744987904480286
sS'WRB'
p2074
F0.037050445632510975
sS'CC'
p2075
F0.04336904119530334
sS'LS'
p2076
F0.012754003156203
sS'PDT'
p2077
F0.022628615766585095
sS'RBS'
p2078
F0.017822973854694009
sS'RBR'
p2079
F0.04233036383168616
sS'CD'
p2080
F0.043988703608923346
sS'EX'
p2081
F0.037907029221112831
sS'IN'
p2082
F0.020135175278726686
sS'MD'
p2083
F0.041046317855335406
sS'NNPS'
p2084
F0.042866578277726018
sS'JJS'
p2085
F0.042948657531759762
sS'JJR'
p2086
F0.048499680587563911
sS'SYM'
p2087
F0.024668348805099657
sS'UH'
p2088
F0.014915240616473018
ssbs(S'RB'
g2
tp2089
(imultinomial
Multinomial
p2090
(dp2091
g6
g7
(g8
tRp2092
sg10
F0
sg11
g7
(g8
tRp2093
S'PRP$'
p2094
F0.033178904312706016
sS'VBG'
p2095
F0.014022438967483454
sS'VBD'
p2096
F0.0092400622117913625
sS'VBN'
p2097
F0.029524183982033752
sS'VBP'
p2098
F0.041370014887949724
sS'WDT'
p2099
F0.042252313695396372
sS'JJ'
p2100
F0.0013846791140461558
sS'WP'
p2101
F0.0055006656894947756
sS'VBZ'
p2102
F0.038706287585374873
sS'DT'
p2103
F0.043249117652272316
sS'#'
F0.031975673047746261
sS'RP'
p2104
F0.017149923064178441
sS'$'
F0.0066156574574121408
sS'NN'
p2105
F0.031058353137036102
sS'FW'
p2106
F0.034159922283916171
sS'POS'
p2107
F0.0016852648018216543
sS'TO'
p2108
F0.04513807348156855
sS'PRP'
p2109
F0.010006731753707636
sS'RB'
p2110
F0.036613010695299729
sS'NNS'
p2111
F0.018052491307468881
sS'NNP'
p2112
F0.0014337028597561305
sS'VB'
p2113
F0.035893002496350149
sS'WRB'
p2114
F0.030808809182479212
sS'CC'
p2115
F0.014558944988596783
sS'LS'
p2116
F0.046461564167237984
sS'PDT'
p2117
F0.049618696344480615
sS'RBS'
p2118
F0.015154157436371302
sS'RBR'
p2119
F0.049454807007000549
sS'CD'
p2120
F0.032878437483310825
sS'EX'
p2121
F0.028658431329759274
sS'IN'
p2122
F0.010545388806136468
sS'MD'
p2123
F0.022781582921409506
sS'NNPS'
p2124
F0.045699957588541847
sS'JJS'
p2125
F0.03314441124949933
sS'JJR'
p2126
F0.02121144422700012
sS'SYM'
p2127
F0.03317396587151196
sS'UH'
p2128
F0.037638926911853526
ssbs(S'MD'
g2
tp2129
(imultinomial
Multinomial
p2130
(dp2131
g6
g7
(g8
tRp2132
sg10
F0
sg11
g7
(g8
tRp2133
S'PRP$'
p2134
F0.052120656581493278
sS'VBG'
p2135
F0.04663098954445944
sS'VBD'
p2136
F0.016057768970322624
sS'VBN'
p2137
F0.042034359777734516
sS'VBP'
p2138
F0.050885961027031933
sS'WDT'
p2139
F0.042109655064107292
sS'JJ'
p2140
F0.049474679972277641
sS'WP'
p2141
F0.026465623184317864
sS'VBZ'
p2142
F0.042134336220628052
sS'DT'
p2143
F0.054298800803619721
sS'#'
F0.020235828960804416
sS'RP'
p2144
F0.0017064052628029563
sS'$'
F0.042320912067402371
sS'NN'
p2145
F0.0093980976946373383
sS'FW'
p2146
F0.002843490964511019
sS'POS'
p2147
F0.032179920079353365
sS'TO'
p2148
F0.0010311502577357125
sS'PRP'
p2149
F0.027852161768664178
sS'RB'
p2150
F0.043674142491874825
sS'NNS'
p2151
F0.016920701222895532
sS'NNP'
p2152
F0.045772524675199482
sS'VB'
p2153
F0.0006639882112050668
sS'WRB'
p2154
F0.029685534298719025
sS'CC'
p2155
F0.053617718442855539
sS'LS'
p2156
F0.019229451445198897
sS'PDT'
p2157
F0.00046660201433583194
sS'RBS'
p2158
F0.016513551981460765
sS'RBR'
p2159
F0.0012017631445953888
sS'CD'
p2160
F0.030468985797692322
sS'EX'
p2161
F0.011060949193906797
sS'IN'
p2162
F0.025883106854858798
sS'MD'
p2163
F0.054173477900655805
sS'NNPS'
p2164
F0.030784907801440848
sS'JJS'
p2165
F0.0082572076926435058
sS'JJR'
p2166
F0.022400983885992907
sS'SYM'
p2167
F0.0053337508313485993
sS'UH'
p2168
F0.024109853911216689
ssbs(S'SYM'
g48
tp2169
(imultinomial
Multinomial
p2170
(dp2171
g6
g7
(g8
tRp2172
sg10
F0
sg11
g7
(g8
tRp2173
S'PRP$'
p2174
F0.032323725584347318
sS'VBG'
p2175
F0.019701059635023433
sS'VBD'
p2176
F0.0067740288956858316
sS'VBN'
p2177
F0.02026179037553073
sS'VBP'
p2178
F0.001049278344002406
sS'WDT'
p2179
F0.042532388663971001
sS'JJ'
p2180
F0.043378993941893949
sS'WP'
p2181
F0.034898878257511451
sS'VBZ'
p2182
F0.038303402812809466
sS'DT'
p2183
F0.038906469614385111
sS'#'
F0.035427687763487523
sS'RP'
p2184
F0.040089381313428166
sS'$'
F0.026938213532194201
sS'NN'
p2185
F0.034551600695663674
sS'FW'
p2186
F0.044796555308349868
sS'POS'
p2187
F0.025869009504825267
sS'TO'
p2188
F0.0048747967615129697
sS'PRP'
p2189
F0.028247080784689266
sS'RB'
p2190
F0.041379665572500744
sS'NNS'
p2191
F0.042050790974465055
sS'NNP'
p2192
F0.02505393388041979
sS'VB'
p2193
F0.042565304581619459
sS'WRB'
p2194
F0.0014522423091309091
sS'CC'
p2195
F0.04542037919139251
sS'LS'
p2196
F0.019253762357613183
sS'PDT'
p2197
F0.0034227216581719042
sS'RBS'
p2198
F0.0046267492376885497
sS'RBR'
p2199
F0.036364782446273294
sS'CD'
p2200
F0.036831537218732981
sS'EX'
p2201
F0.0072848191445531842
sS'IN'
p2202
F0.016935310885380535
sS'MD'
p2203
F0.029566038836535576
sS'NNPS'
p2204
F0.018926566370443682
sS'JJS'
p2205
F0.018771271760334877
sS'JJR'
p2206
F0.042594367185276663
sS'SYM'
p2207
F0.01082017515498764
sS'UH'
p2208
F0.037755239445167621
ssbs(S'WP'
g48
tp2209
(imultinomial
Multinomial
p2210
(dp2211
g6
g7
(g8
tRp2212
sg10
F0
sg11
g7
(g8
tRp2213
S'PRP$'
p2214
F0.016664088123931182
sS'VBG'
p2215
F0.0099971015226865637
sS'VBD'
p2216
F0.0060546551464784014
sS'VBN'
p2217
F0.0093217607621922261
sS'VBP'
p2218
F0.036734623167082779
sS'WDT'
p2219
F0.051299420928982174
sS'JJ'
p2220
F0.034913261148054674
sS'WP'
p2221
F0.053759504110911703
sS'VBZ'
p2222
F0.041761475293330866
sS'DT'
p2223
F0.040585827181268706
sS'#'
F0.029653952931692987
sS'RP'
p2224
F0.010678000894481754
sS'$'
F0.034370092204335276
sS'NN'
p2225
F0.017261349013279123
sS'FW'
p2226
F0.040021927275310246
sS'POS'
p2227
F0.014347565495136249
sS'TO'
p2228
F0.057214458531885767
sS'PRP'
p2229
F0.034913577727938662
sS'RB'
p2230
F0.0028870436258946184
sS'NNS'
p2231
F0.0055997063432502575
sS'NNP'
p2232
F0.021642947381045111
sS'VB'
p2233
F0.056429969033383806
sS'WRB'
p2234
F0.0067637250691783305
sS'CC'
p2235
F0.057788381897470729
sS'LS'
p2236
F0.02577379632222588
sS'PDT'
p2237
F0.053518764344556748
sS'RBS'
p2238
F0.017705918066879021
sS'RBR'
p2239
F0.0065465843708200572
sS'CD'
p2240
F0.0057290575141520084
sS'EX'
p2241
F0.056773831118117783
sS'IN'
p2242
F0.016380845772923199
sS'MD'
p2243
F0.035553940288428079
sS'NNPS'
p2244
F0.030011867773538904
sS'JJS'
p2245
F0.010921426506169991
sS'JJR'
p2246
F0.011372456407817673
sS'SYM'
p2247
F0.01795791721407456
sS'UH'
p2248
F0.021089179491093884
ssbs(S'TO'
g48
tp2249
(imultinomial
Multinomial
p2250
(dp2251
g6
g7
(g8
tRp2252
sg10
F0
sg11
g7
(g8
tRp2253
S'PRP$'
p2254
F0.031903753725567169
sS'VBG'
p2255
F0.025951034267165947
sS'VBD'
p2256
F0.038803584233867421
sS'VBN'
p2257
F0.019210072018674269
sS'VBP'
p2258
F0.010436845644616237
sS'WDT'
p2259
F0.0045170795886584677
sS'JJ'
p2260
F0.01506008824906958
sS'WP'
p2261
F0.022745884241526609
sS'VBZ'
p2262
F0.035776608042489812
sS'DT'
p2263
F0.021986963012903871
sS'#'
F0.026550592887652529
sS'RP'
p2264
F0.045071229804672173
sS'$'
F0.047247766957262266
sS'NN'
p2265
F0.020475379700030341
sS'FW'
p2266
F0.040488575524672631
sS'POS'
p2267
F0.048127832487782331
sS'TO'
p2268
F0.0091877207881650661
sS'PRP'
p2269
F0.036748289405269828
sS'RB'
p2270
F0.016930113218938225
sS'NNS'
p2271
F0.041024323865945601
sS'NNP'
p2272
F0.019620547622879798
sS'VB'
p2273
F0.011271007191199216
sS'WRB'
p2274
F0.041072607400155677
sS'CC'
p2275
F0.043737283261603553
sS'LS'
p2276
F0.021434218476877178
sS'PDT'
p2277
F0.011188663427535493
sS'RBS'
p2278
F0.019098721572211527
sS'RBR'
p2279
F0.015768307053401025
sS'CD'
p2280
F0.033318852430542938
sS'EX'
p2281
F0.019606752729388929
sS'IN'
p2282
F0.021896332149644874
sS'MD'
p2283
F0.039378657815795137
sS'NNPS'
p2284
F0.012988917660381709
sS'JJS'
p2285
F0.03514548311008827
sS'JJR'
p2286
F0.042719136542026449
sS'SYM'
p2287
F0.043724407483215502
sS'UH'
p2288
F0.0097863664081225682
ssbs(S'RBR'
g2
tp2289
(imultinomial
Multinomial
p2290
(dp2291
g6
g7
(g8
tRp2292
sg10
F0
sg11
g7
(g8
tRp2293
S'PRP$'
p2294
F0.029327556577368814
sS'VBG'
p2295
F0.041371386694277937
sS'VBD'
p2296
F0.004344175956152458
sS'VBN'
p2297
F0.037454091443500176
sS'VBP'
p2298
F0.024731257298597542
sS'WDT'
p2299
F0.034804347355692204
sS'JJ'
p2300
F0.033925518384718599
sS'WP'
p2301
F0.028935576761275658
sS'VBZ'
p2302
F0.031436708579004706
sS'DT'
p2303
F0.013624273098135105
sS'#'
F0.041468030076289068
sS'RP'
p2304
F0.033062827498717424
sS'$'
F0.041884175763759919
sS'NN'
p2305
F0.030019925994602764
sS'FW'
p2306
F0.013910355018335976
sS'POS'
p2307
F0.037272173093923451
sS'TO'
p2308
F0.034980589458564935
sS'PRP'
p2309
F0.03735824906581834
sS'RB'
p2310
F0.022673136103226247
sS'NNS'
p2311
F0.030198736697390371
sS'NNP'
p2312
F0.021032970006772192
sS'VB'
p2313
F0.035219951463046469
sS'WRB'
p2314
F0.002071669144803957
sS'CC'
p2315
F0.030890825018100032
sS'LS'
p2316
F0.025735856446178651
sS'PDT'
p2317
F0.027441671346142685
sS'RBS'
p2318
F0.0051570305779643664
sS'RBR'
p2319
F0.036399051574504758
sS'CD'
p2320
F0.028787216466252718
sS'EX'
p2321
F0.031408290669130715
sS'IN'
p2322
F0.011095764097776928
sS'MD'
p2323
F0.0085467011879136016
sS'NNPS'
p2324
F0.021964074834476151
sS'JJS'
p2325
F0.039572048053602878
sS'JJR'
p2326
F0.034209670913462789
sS'SYM'
p2327
F0.0323687879083146
sS'UH'
p2328
F0.0053153293722049645
ssbs(S'PRP$'
g48
tp2329
(imultinomial
Multinomial
p2330
(dp2331
g6
g7
(g8
tRp2332
sg10
F0
sg11
g7
(g8
tRp2333
S'PRP$'
p2334
F0.044706640939316311
sS'VBG'
p2335
F0.026595596325680169
sS'VBD'
p2336
F0.029754351729745075
sS'VBN'
p2337
F0.03231555410070501
sS'VBP'
p2338
F0.02694589204497572
sS'WDT'
p2339
F0.029316994980824379
sS'JJ'
p2340
F0.017684280991189863
sS'WP'
p2341
F0.023416149035493536
sS'VBZ'
p2342
F0.046486698704522114
sS'DT'
p2343
F0.0074872296368773189
sS'#'
F0.050597140283489425
sS'RP'
p2344
F0.045307201402546037
sS'$'
F0.025432201584841416
sS'NN'
p2345
F0.021680097333902183
sS'FW'
p2346
F0.030578338514963502
sS'POS'
p2347
F0.007589759160709972
sS'TO'
p2348
F0.035364012702539666
sS'PRP'
p2349
F0.026078634826716698
sS'RB'
p2350
F0.02687555285251966
sS'NNS'
p2351
F0.044167320580745399
sS'NNP'
p2352
F0.022590782906269431
sS'VB'
p2353
F0.044383795995484587
sS'WRB'
p2354
F0.052922604801072581
sS'CC'
p2355
F0.012177260420800522
sS'LS'
p2356
F0.0001238973007997133
sS'PDT'
p2357
F0.033853003597568966
sS'RBS'
p2358
F0.013168985443615382
sS'RBR'
p2359
F0.012350429811487925
sS'CD'
p2360
F0.021907145160509227
sS'EX'
p2361
F0.031793146571435935
sS'IN'
p2362
F0.010116186187009569
sS'MD'
p2363
F0.013433908261407482
sS'NNPS'
p2364
F0.021635033552145088
sS'JJS'
p2365
F0.036903942772276606
sS'JJR'
p2366
F0.0406661562599114
sS'SYM'
p2367
F0.025923905384280559
sS'UH'
p2368
F0.0076701678416216694
ssbs(S'*'
S'left'
tp2369
(imultinomial
Multinomial
p2370
(dp2371
g6
g7
(g8
tRp2372
sg10
F0
sg11
g7
(g8
tRp2373
g254
F0.043256462429364491
sg255
F0.00054711776770623871
sg256
F0.0012753824333961677
sg257
F0.052557105033687483
sg258
F0.032533431636573337
sg259
F0.048336437926176694
sg260
F0.023744829321325493
sg261
F0.03146209056097251
sg262
F0.041473665244504292
sg263
F0.031880949873775155
sS'#'
F0.017984501912696658
sg264
F0.020508845437757224
sS'$'
F0.049921027220741973
sg265
F0.010089524026163201
sg266
F0.021539870505910004
sg267
F0.05120879750730975
sg268
F0.016497104258011566
sg269
F0.049775731003282912
sg270
F0.0089854017118984227
sg271
F0.0074889413283162742
sg272
F0.040171807922191716
sg273
F0.026595958610258368
sg274
F0.017383556425575049
sg275
F0.013607129678240419
sg276
F0.0034323549428174529
sg277
F0.023493389775202576
sg278
F0.0047043398280073321
sg279
F0.032670720909980557
sg280
F0.061123603829992892
sg281
F0.02331279372292645
sg282
F0.0086415278452123094
sg283
F0.058646962088053103
sg284
F0.027038549614887258
sg285
F0.017542589512391026
sg286
F0.018911687975527263
sg287
F0.026282554429558746
sg288
F0.035373255749607542
ssbs(S'VBN'
g2
tp2374
(imultinomial
Multinomial
p2375
(dp2376
g6
g7
(g8
tRp2377
sg10
F0
sg11
g7
(g8
tRp2378
S'PRP$'
p2379
F0.015077415199176606
sS'VBG'
p2380
F0.020059375965956756
sS'VBD'
p2381
F0.020518733743933742
sS'VBN'
p2382
F0.0022681764643014144
sS'VBP'
p2383
F0.019125193538775214
sS'WDT'
p2384
F0.043581685622834786
sS'JJ'
p2385
F0.046656516198730798
sS'WP'
p2386
F0.039365424751434987
sS'VBZ'
p2387
F0.0027709432427625493
sS'DT'
p2388
F0.04767579846641682
sS'#'
F0.055487329951484671
sS'RP'
p2389
F0.0026625718342254425
sS'$'
F0.036240495970779676
sS'NN'
p2390
F0.043042739921546086
sS'FW'
p2391
F0.0064425071804720922
sS'POS'
p2392
F0.0028407314854699667
sS'TO'
p2393
F0.0030040501144691033
sS'PRP'
p2394
F0.029132166751532882
sS'RB'
p2395
F0.028750763301579035
sS'NNS'
p2396
F0.0083086842554591471
sS'NNP'
p2397
F0.050302665111449513
sS'VB'
p2398
F0.036267422791676683
sS'WRB'
p2399
F0.040562982226280374
sS'CC'
p2400
F0.042907807322766944
sS'LS'
p2401
F0.027963982353767146
sS'PDT'
p2402
F0.041268145374700228
sS'RBS'
p2403
F0.029765443248085274
sS'RBR'
p2404
F0.03404746825287272
sS'CD'
p2405
F0.0064466611774090582
sS'EX'
p2406
F0.052718948660737681
sS'IN'
p2407
F0.045213707238830128
sS'MD'
p2408
F0.0073374068276752889
sS'NNPS'
p2409
F0.028351505952372638
sS'JJS'
p2410
F0.023405705746670842
sS'JJR'
p2411
F0.01630760402250879
sS'SYM'
p2412
F0.020105307911088725
sS'UH'
p2413
F0.024015931819766002
ssbs(S'NN'
g48
tp2414
(imultinomial
Multinomial
p2415
(dp2416
g6
g7
(g8
tRp2417
sg10
F0
sg11
g7
(g8
tRp2418
S'PRP$'
p2419
F0.045020236588880588
sS'VBG'
p2420
F0.030418285783449125
sS'VBD'
p2421
F0.027419665878325745
sS'VBN'
p2422
F0.040314465179155178
sS'VBP'
p2423
F0.00044138081080044654
sS'WDT'
p2424
F0.043911815661466631
sS'JJ'
p2425
F0.035834629586038919
sS'WP'
p2426
F0.0025280604289841914
sS'VBZ'
p2427
F0.022223270975385574
sS'DT'
p2428
F0.041384732761881329
sS'#'
F0.028401541491570318
sS'RP'
p2429
F0.031099934449515816
sS'$'
F0.030148513888749475
sS'NN'
p2430
F0.045665625388075753
sS'FW'
p2431
F0.017364560518763797
sS'POS'
p2432
F0.0083131536920631882
sS'TO'
p2433
F0.043692623890458679
sS'PRP'
p2434
F0.010235929631303049
sS'RB'
p2435
F0.039510886201618148
sS'NNS'
p2436
F0.026383954674397567
sS'NNP'
p2437
F0.0063369012629200215
sS'VB'
p2438
F0.0033064676260887859
sS'WRB'
p2439
F0.034586155386060677
sS'CC'
p2440
F0.031916691446014431
sS'LS'
p2441
F0.05126744386118226
sS'PDT'
p2442
F0.0046250416250234651
sS'RBS'
p2443
F0.051218190155287557
sS'RBR'
p2444
F0.040056035672185242
sS'CD'
p2445
F0.034622479491704689
sS'EX'
p2446
F0.010111058504615576
sS'IN'
p2447
F0.052365714602909452
sS'MD'
p2448
F0.011959262754829603
sS'NNPS'
p2449
F0.0029331751751146425
sS'JJS'
p2450
F0.01517269290277613
sS'JJR'
p2451
F0.029386120003883149
sS'SYM'
p2452
F0.012121233892183211
sS'UH'
p2453
F0.037702068156337684
ssbs(S'CD'
g48
tp2454
(imultinomial
Multinomial
p2455
(dp2456
g6
g7
(g8
tRp2457
sg10
F0
sg11
g7
(g8
tRp2458
S'PRP$'
p2459
F0.024251865596001204
sS'VBG'
p2460
F0.012601563719955858
sS'VBD'
p2461
F0.034090916195442106
sS'VBN'
p2462
F0.0029030919487376692
sS'VBP'
p2463
F0.017341415298260363
sS'WDT'
p2464
F0.030409470413551676
sS'JJ'
p2465
F0.046015889452794403
sS'WP'
p2466
F0.037956215427799034
sS'VBZ'
p2467
F0.0039848004518262415
sS'DT'
p2468
F0.010554584352204952
sS'#'
F0.032360826546474139
sS'RP'
p2469
F0.036974616116681853
sS'$'
F0.039238353766125007
sS'NN'
p2470
F0.035101219068481022
sS'FW'
p2471
F0.015728503212289205
sS'POS'
p2472
F0.041497476101951376
sS'TO'
p2473
F0.0099811631853330123
sS'PRP'
p2474
F0.017394835224523113
sS'RB'
p2475
F0.035032326733408517
sS'NNS'
p2476
F0.054885775891255331
sS'NNP'
p2477
F0.035770491347298781
sS'VB'
p2478
F0.050665226440319018
sS'WRB'
p2479
F0.0036976926938476896
sS'CC'
p2480
F0.025720715395189539
sS'LS'
p2481
F0.014096091056459117
sS'PDT'
p2482
F0.0099291936398008852
sS'RBS'
p2483
F0.04394144407191896
sS'RBR'
p2484
F0.0057108772954758231
sS'CD'
p2485
F0.026153397294345362
sS'EX'
p2486
F0.056228451604834702
sS'IN'
p2487
F0.012689965652450719
sS'MD'
p2488
F0.028305328720027383
sS'NNPS'
p2489
F0.057687896710667694
sS'JJS'
p2490
F0.031696495365964306
sS'JJR'
p2491
F0.026121463398897118
sS'SYM'
p2492
F0.025068540160532532
sS'UH'
p2493
F0.0082118204488740819
ssbs(S'NNS'
g2
tp2494
(imultinomial
Multinomial
p2495
(dp2496
g6
g7
(g8
tRp2497
sg10
F0
sg11
g7
(g8
tRp2498
S'PRP$'
p2499
F0.046645661048311207
sS'VBG'
p2500
F0.034907530569036199
sS'VBD'
p2501
F0.00329856241355645
sS'VBN'
p2502
F0.046791166507331429
sS'VBP'
p2503
F0.022631588670030151
sS'WDT'
p2504
F9.1023924701161751e-05
sS'JJ'
p2505
F0.035952381000435359
sS'WP'
p2506
F0.012295598920599128
sS'VBZ'
p2507
F0.017331858437060078
sS'DT'
p2508
F0.012948715346857024
sS'#'
F0.014963262442150247
sS'RP'
p2509
F0.003241940732760355
sS'$'
F0.046024492099297792
sS'NN'
p2510
F0.024012973364715945
sS'FW'
p2511
F0.057086287210312538
sS'POS'
p2512
F0.056528256998371697
sS'TO'
p2513
F0.013797588042299122
sS'PRP'
p2514
F0.039384768551857456
sS'RB'
p2515
F0.032900594003290665
sS'NNS'
p2516
F0.029916010158089951
sS'NNP'
p2517
F0.05403625112837053
sS'VB'
p2518
F0.05425758635244405
sS'WRB'
p2519
F0.016358873172887201
sS'CC'
p2520
F0.01117437452519273
sS'LS'
p2521
F0.022937910689281953
sS'PDT'
p2522
F0.007978874416843397
sS'RBS'
p2523
F0.00026387849325960059
sS'RBR'
p2524
F0.040710742660109135
sS'CD'
p2525
F0.026146969240276961
sS'EX'
p2526
F0.044509428285204981
sS'IN'
p2527
F0.012188859182030222
sS'MD'
p2528
F0.0039786440071170655
sS'NNPS'
p2529
F0.022711686574676503
sS'JJS'
p2530
F0.016304431596645932
sS'JJR'
p2531
F0.0391122920851147
sS'SYM'
p2532
F0.033273602903457065
sS'UH'
p2533
F0.043305334246024133
ssbs(S'NNPS'
g48
tp2534
(imultinomial
Multinomial
p2535
(dp2536
g6
g7
(g8
tRp2537
sg10
F0
sg11
g7
(g8
tRp2538
S'PRP$'
p2539
F0.0033057779135630123
sS'VBG'
p2540
F0.0046850610061711841
sS'VBD'
p2541
F0.046697008447100494
sS'VBN'
p2542
F0.012571277806762426
sS'VBP'
p2543
F0.01806146281822946
sS'WDT'
p2544
F0.01464678201211337
sS'JJ'
p2545
F0.025917167365807618
sS'WP'
p2546
F0.0086937220329417354
sS'VBZ'
p2547
F0.024358927851034683
sS'DT'
p2548
F0.043923077999106393
sS'#'
F0.049505057041343239
sS'RP'
p2549
F0.031273933905666462
sS'$'
F0.022660384145871702
sS'NN'
p2550
F0.012828306913695743
sS'FW'
p2551
F0.044182071456800344
sS'POS'
p2552
F0.012453266156008481
sS'TO'
p2553
F0.050802443509797103
sS'PRP'
p2554
F0.012409142731179651
sS'RB'
p2555
F0.046512754881310445
sS'NNS'
p2556
F0.0066914034763094488
sS'NNP'
p2557
F0.049429125963020237
sS'VB'
p2558
F0.013644218146973662
sS'WRB'
p2559
F0.032625845451026314
sS'CC'
p2560
F0.0012588480021036453
sS'LS'
p2561
F0.042955797000343167
sS'PDT'
p2562
F0.038915099931519356
sS'RBS'
p2563
F0.042222455265240794
sS'RBR'
p2564
F0.030883760703176336
sS'CD'
p2565
F0.024313867226709199
sS'EX'
p2566
F0.046148248216685422
sS'IN'
p2567
F0.026391163105208205
sS'MD'
p2568
F0.044807064866296709
sS'NNPS'
p2569
F0.03265857938246769
sS'JJS'
p2570
F0.023523216033695851
sS'JJR'
p2571
F0.0060738969750791117
sS'SYM'
p2572
F0.024061845807366491
sS'UH'
p2573
F0.027907938452274888
ssbs(S'PRP'
g48
tp2574
(imultinomial
Multinomial
p2575
(dp2576
g6
g7
(g8
tRp2577
sg10
F0
sg11
g7
(g8
tRp2578
S'PRP$'
p2579
F0.022450335779468329
sS'VBG'
p2580
F0.01579410185339495
sS'VBD'
p2581
F0.034371226237395816
sS'VBN'
p2582
F0.0048834485211667715
sS'VBP'
p2583
F0.047744634974163154
sS'WDT'
p2584
F0.010347980263317819
sS'JJ'
p2585
F0.0046728182839511799
sS'WP'
p2586
F0.01964815200057126
sS'VBZ'
p2587
F0.036620290754600604
sS'DT'
p2588
F0.032326611691515218
sS'#'
F0.042470130930031672
sS'RP'
p2589
F0.034196493073528025
sS'$'
F0.013908656525808263
sS'NN'
p2590
F0.013461732118506393
sS'FW'
p2591
F0.0082222749998379866
sS'POS'
p2592
F0.023460729194209634
sS'TO'
p2593
F0.03247882673920547
sS'PRP'
p2594
F0.04202317688176286
sS'RB'
p2595
F0.0035062690598315327
sS'NNS'
p2596
F0.011669197662655015
sS'NNP'
p2597
F0.049538990475981939
sS'VB'
p2598
F0.001433742280610447
sS'WRB'
p2599
F0.02136094565866067
sS'CC'
p2600
F0.031283253326848642
sS'LS'
p2601
F0.052194841408323651
sS'PDT'
p2602
F0.046505858950357686
sS'RBS'
p2603
F0.011748019549015375
sS'RBR'
p2604
F0.020330316173125623
sS'CD'
p2605
F0.030382519810729345
sS'EX'
p2606
F0.04871254923361968
sS'IN'
p2607
F0.038381228299884537
sS'MD'
p2608
F0.035216692516777726
sS'NNPS'
p2609
F0.049731522946357756
sS'JJS'
p2610
F0.039648130704215023
sS'JJR'
p2611
F0.00097589434066818208
sS'SYM'
p2612
F0.033602768322451987
sS'UH'
p2613
F0.034695638457449864
ssbs(S'#'
g2
tp2614
(imultinomial
Multinomial
p2615
(dp2616
g6
g7
(g8
tRp2617
sg10
F0
sg11
g7
(g8
tRp2618
S'PRP$'
p2619
F0.012949741272015142
sS'VBG'
p2620
F0.043056266954393463
sS'VBD'
p2621
F0.0035573956484549652
sS'VBN'
p2622
F0.02138233219952021
sS'VBP'
p2623
F0.046125638732418768
sS'WDT'
p2624
F0.042303953664484979
sS'JJ'
p2625
F0.014010272858343231
sS'WP'
p2626
F0.01799277954167847
sS'VBZ'
p2627
F0.052469003779257568
sS'DT'
p2628
F0.021991821073274003
sS'#'
F0.0071329505944553468
sS'RP'
p2629
F0.00026262498281966201
sS'$'
F0.015832553137430178
sS'NN'
p2630
F0.05052838962306027
sS'FW'
p2631
F0.028461394530666095
sS'POS'
p2632
F0.017650018055874524
sS'TO'
p2633
F0.0074263586284462205
sS'PRP'
p2634
F0.012029590178699479
sS'RB'
p2635
F0.051462901109172308
sS'NNS'
p2636
F0.01894766709423925
sS'NNP'
p2637
F0.042668411783947771
sS'VB'
p2638
F0.0085519627756929766
sS'WRB'
p2639
F0.01469700377114116
sS'CC'
p2640
F0.048642954176633328
sS'LS'
p2641
F0.053523642779061485
sS'PDT'
p2642
F0.0033036368910285279
sS'RBS'
p2643
F0.054588096255096467
sS'RBR'
p2644
F0.03924710320969229
sS'CD'
p2645
F0.008721247769199551
sS'EX'
p2646
F0.054161365147524336
sS'IN'
p2647
F0.041798142539660001
sS'MD'
p2648
F0.023061273339140136
sS'NNPS'
p2649
F0.0062174552970186807
sS'JJS'
p2650
F0.047973306745786808
sS'JJR'
p2651
F0.0036793591271492196
sS'SYM'
p2652
F0.019539423050197732
sS'UH'
p2653
F0.044051961683325411
ssbs(S'FW'
g48
tp2654
(imultinomial
Multinomial
p2655
(dp2656
g6
g7
(g8
tRp2657
sg10
F0
sg11
g7
(g8
tRp2658
S'PRP$'
p2659
F0.021517021992937028
sS'VBG'
p2660
F0.035096224396915336
sS'VBD'
p2661
F0.067034039741268758
sS'VBN'
p2662
F0.013174272831165406
sS'VBP'
p2663
F0.026559576746467941
sS'WDT'
p2664
F0.0074535428649336486
sS'JJ'
p2665
F0.050657722560450202
sS'WP'
p2666
F0.0020414776308960926
sS'VBZ'
p2667
F0.0089831417159800184
sS'DT'
p2668
F0.0013597209947953718
sS'#'
F0.0015499064326422267
sS'RP'
p2669
F0.0084048452038706298
sS'$'
F0.041367289368651722
sS'NN'
p2670
F0.0076034165926710832
sS'FW'
p2671
F0.052492092188442536
sS'POS'
p2672
F0.077444399472784323
sS'TO'
p2673
F0.0027983885061525693
sS'PRP'
p2674
F0.033125986354582679
sS'RB'
p2675
F0.038514219894417348
sS'NNS'
p2676
F0.024859891093509067
sS'NNP'
p2677
F0.036601167860991414
sS'VB'
p2678
F0.067177188615036035
sS'WRB'
p2679
F0.023273279524443684
sS'CC'
p2680
F0.01917386484109971
sS'LS'
p2681
F0.016037240754048852
sS'PDT'
p2682
F0.0010475083351860206
sS'RBS'
p2683
F0.037187276738976607
sS'RBR'
p2684
F0.060141581919235916
sS'CD'
p2685
F0.0077907952559201658
sS'EX'
p2686
F0.071223664404500286
sS'IN'
p2687
F0.026213839324181368
sS'MD'
p2688
F0.02989525927517217
sS'NNPS'
p2689
F0.019329804888682564
sS'JJS'
p2690
F0.024870106255702774
sS'JJR'
p2691
F0.012754336246757751
sS'SYM'
p2692
F0.01492679881944977
sS'UH'
p2693
F0.010319110357080614
ssbs(S'VBG'
g2
tp2694
(imultinomial
Multinomial
p2695
(dp2696
g6
g7
(g8
tRp2697
sg10
F0
sg11
g7
(g8
tRp2698
S'PRP$'
p2699
F0.0083631681347535562
sS'VBG'
p2700
F0.020409093921450974
sS'VBD'
p2701
F0.035171154882800461
sS'VBN'
p2702
F0.010801577800219729
sS'VBP'
p2703
F0.045301578816315746
sS'WDT'
p2704
F0.0025721440653172214
sS'JJ'
p2705
F0.034045224851605639
sS'WP'
p2706
F0.028467282547738268
sS'VBZ'
p2707
F0.010445564202298297
sS'DT'
p2708
F0.046657090289053557
sS'#'
F0.010982689038015012
sS'RP'
p2709
F0.003218337442825145
sS'$'
F0.023807735857108131
sS'NN'
p2710
F0.048216704096832257
sS'FW'
p2711
F0.046601698676840095
sS'POS'
p2712
F0.031747522979365721
sS'TO'
p2713
F0.031876190967113756
sS'PRP'
p2714
F0.041756085773371095
sS'RB'
p2715
F0.017297650082868071
sS'NNS'
p2716
F0.030471755435837099
sS'NNP'
p2717
F0.038882008149268114
sS'VB'
p2718
F0.048389884764339558
sS'WRB'
p2719
F0.028107670016687326
sS'CC'
p2720
F0.037513866091134496
sS'LS'
p2721
F0.0048593960594930409
sS'PDT'
p2722
F0.030565604520583389
sS'RBS'
p2723
F0.03030108593217018
sS'RBR'
p2724
F0.036069737475187963
sS'CD'
p2725
F0.0076232389305448634
sS'EX'
p2726
F0.012072484251393362
sS'IN'
p2727
F0.022950537647057352
sS'MD'
p2728
F0.019923490320378462
sS'NNPS'
p2729
F0.031964624819355782
sS'JJS'
p2730
F0.027705868556741522
sS'JJR'
p2731
F0.046555063804864051
sS'SYM'
p2732
F0.037904317902549486
sS'UH'
p2733
F0.010400870896521211
ssbs(S'NNP'
g2
tp2734
(imultinomial
Multinomial
p2735
(dp2736
g6
g7
(g8
tRp2737
sg10
F0
sg11
g7
(g8
tRp2738
S'PRP$'
p2739
F0.017669191331315327
sS'VBG'
p2740
F0.02781361847781921
sS'VBD'
p2741
F0.029258899327580613
sS'VBN'
p2742
F0.035645949387216283
sS'VBP'
p2743
F0.044373284933535664
sS'WDT'
p2744
F0.039340996142334446
sS'JJ'
p2745
F0.052224175346698147
sS'WP'
p2746
F0.024251233426418203
sS'VBZ'
p2747
F0.023438793085127453
sS'DT'
p2748
F0.046253781651556372
sS'#'
F0.0043407031393132133
sS'RP'
p2749
F0.046666887520995022
sS'$'
F0.051225538495457142
sS'NN'
p2750
F0.0015722009108562187
sS'FW'
p2751
F0.050443160154153857
sS'POS'
p2752
F0.042893887041800423
sS'TO'
p2753
F0.012523550337403044
sS'PRP'
p2754
F0.015162657387470704
sS'RB'
p2755
F0.037052447979083532
sS'NNS'
p2756
F0.0042404540284484123
sS'NNP'
p2757
F0.00016179258565713248
sS'VB'
p2758
F0.015310018101352347
sS'WRB'
p2759
F0.04578268110056468
sS'CC'
p2760
F0.020944118493494812
sS'LS'
p2761
F0.037464639869017609
sS'PDT'
p2762
F0.011266136584364731
sS'RBS'
p2763
F0.017919092671963177
sS'RBR'
p2764
F0.006449503700245619
sS'CD'
p2765
F0.045375420223972292
sS'EX'
p2766
F0.017307666621610051
sS'IN'
p2767
F0.01130513212122659
sS'MD'
p2768
F0.0035421620034930515
sS'NNPS'
p2769
F0.021432148248759015
sS'JJS'
p2770
F0.053859253658843954
sS'JJR'
p2771
F0.0046710488992755062
sS'SYM'
p2772
F0.036005362337488467
sS'UH'
p2773
F0.044812412674087539
ssbs(S'WRB'
g48
tp2774
(imultinomial
Multinomial
p2775
(dp2776
g6
g7
(g8
tRp2777
sg10
F0
sg11
g7
(g8
tRp2778
S'PRP$'
p2779
F0.045124527832684322
sS'VBG'
p2780
F0.046248707163447644
sS'FW'
p2781
F0.035662855654557186
sS'VBN'
p2782
F0.043903700013927974
sS'VBP'
p2783
F0.027048146497310417
sS'WDT'
p2784
F0.045254800906508214
sS'JJ'
p2785
F0.036908147670556973
sS'WP'
p2786
F0.039428163637098328
sS'VBZ'
p2787
F0.015312817045830098
sS'DT'
p2788
F0.04856188587978718
sS'#'
F0.0049704748933502244
sS'RP'
p2789
F0.016082410823736688
sS'$'
F0.019319591486353774
sS'NN'
p2790
F0.0090117805586002117
sS'VBD'
p2791
F0.032309261081811973
sS'POS'
p2792
F0.031089248040831761
sS'TO'
p2793
F0.026947812233260583
sS'PRP'
p2794
F0.040873160735872979
sS'RB'
p2795
F0.013936821034051413
sS'NNS'
p2796
F0.025890870415354796
sS'NNP'
p2797
F0.030051220580567594
sS'VB'
p2798
F0.016042859245448758
sS'WRB'
p2799
F0.026674226702610854
sS'CC'
p2800
F0.015043856836596809
sS'LS'
p2801
F0.016896434272160133
sS'PDT'
p2802
F0.01420332091477711
sS'RBS'
p2803
F0.0082199075944813862
sS'RBR'
p2804
F0.040922153734848574
sS'CD'
p2805
F0.0011720043482320685
sS'EX'
p2806
F0.025560913479478628
sS'IN'
p2807
F0.036404911636626763
sS'MD'
p2808
F0.043407961689153951
sS'NNPS'
p2809
F0.013884649364563129
sS'JJS'
p2810
F0.049323681603613542
sS'JJR'
p2811
F0.016960306973973209
sS'SYM'
p2812
F0.013323987915562125
sS'UH'
p2813
F0.028022419502372168
ssbs(S'JJR'
g48
tp2814
(imultinomial
Multinomial
p2815
(dp2816
g6
g7
(g8
tRp2817
sg10
F0
sg11
g7
(g8
tRp2818
S'PRP$'
p2819
F0.016659211474506809
sS'VBG'
p2820
F0.016664678501355657
sS'VBD'
p2821
F0.017891848163114562
sS'VBN'
p2822
F0.012204585086437496
sS'VBP'
p2823
F0.019189708610994408
sS'WDT'
p2824
F0.0080213811537487613
sS'JJ'
p2825
F0.044564897729275875
sS'WP'
p2826
F0.011190647346939749
sS'VBZ'
p2827
F0.051650219838706338
sS'DT'
p2828
F0.030768178209048161
sS'#'
F0.00046994646918958579
sS'RP'
p2829
F0.028891181083920116
sS'$'
F0.00032924767932112514
sS'NN'
p2830
F0.02165746425110264
sS'FW'
p2831
F0.031317560874735452
sS'POS'
p2832
F0.030403229108844937
sS'TO'
p2833
F0.055101061667421458
sS'PRP'
p2834
F0.042998483779864434
sS'RB'
p2835
F0.044617876293752509
sS'NNS'
p2836
F0.011786160926337476
sS'NNP'
p2837
F0.0080222277377535248
sS'VB'
p2838
F0.040947093328044436
sS'WRB'
p2839
F0.023603041703848561
sS'CC'
p2840
F0.031704092265752812
sS'LS'
p2841
F0.0034544668419768752
sS'PDT'
p2842
F0.04759651042305299
sS'RBS'
p2843
F0.03921618272412563
sS'RBR'
p2844
F0.025861912334550759
sS'CD'
p2845
F0.032638395260035563
sS'EX'
p2846
F0.052112275026826978
sS'IN'
p2847
F0.002540444704834075
sS'MD'
p2848
F0.026917794595615441
sS'NNPS'
p2849
F0.058352410472912529
sS'JJS'
p2850
F0.0046123951854100198
sS'JJR'
p2851
F0.054171911075971517
sS'SYM'
p2852
F0.04765459600991992
sS'UH'
p2853
F0.0042166820607509583
ssbs(S'JJ'
g48
tp2854
(imultinomial
Multinomial
p2855
(dp2856
g6
g7
(g8
tRp2857
sg10
F0
sg11
g7
(g8
tRp2858
S'PRP$'
p2859
F0.00062367873894197837
sS'VBG'
p2860
F0.032899485691930873
sS'VBD'
p2861
F0.037963600161833456
sS'VBN'
p2862
F0.048935929638015629
sS'VBP'
p2863
F0.050480273168612332
sS'WDT'
p2864
F0.0066466395172112497
sS'JJ'
p2865
F0.040540241018167188
sS'WP'
p2866
F0.024338299440998103
sS'VBZ'
p2867
F0.034383856207385953
sS'DT'
p2868
F0.0069938026537152672
sS'#'
F0.039999259040699481
sS'RP'
p2869
F0.030652764145782239
sS'$'
F0.040723419814316465
sS'NN'
p2870
F0.00046921869462918857
sS'FW'
p2871
F0.056510706282398855
sS'POS'
p2872
F0.056157061043372168
sS'TO'
p2873
F0.0432196305414108
sS'PRP'
p2874
F0.0078587206759024898
sS'RB'
p2875
F0.024057073084402386
sS'NNS'
p2876
F0.01331125590267726
sS'NNP'
p2877
F0.034544872213989559
sS'VB'
p2878
F0.022735758332873678
sS'WRB'
p2879
F0.016080752037255928
sS'CC'
p2880
F0.041461735551124576
sS'LS'
p2881
F0.029158438055116236
sS'PDT'
p2882
F0.017697667862841472
sS'RBS'
p2883
F0.025015033741618436
sS'RBR'
p2884
F0.026240096353951175
sS'CD'
p2885
F0.022722700067455859
sS'EX'
p2886
F0.0047431880871022557
sS'IN'
p2887
F0.0092076290463154169
sS'MD'
p2888
F0.0024714728913404331
sS'NNPS'
p2889
F0.0013655775766870095
sS'JJS'
p2890
F0.052789437754102352
sS'JJR'
p2891
F0.056380086034237997
sS'SYM'
p2892
F0.033317162641198231
sS'UH'
p2893
F0.0073034762903858626
ssbs(S'NNP'
g48
tp2894
(imultinomial
Multinomial
p2895
(dp2896
g6
g7
(g8
tRp2897
sg10
F0
sg11
g7
(g8
tRp2898
S'PRP$'
p2899
F0.012664336923466085
sS'VBG'
p2900
F0.034588958006714694
sS'VBD'
p2901
F0.029116213709212514
sS'VBN'
p2902
F0.036520899747383165
sS'VBP'
p2903
F0.020318425433748153
sS'WDT'
p2904
F0.037524935522399556
sS'JJ'
p2905
F0.054359264317566845
sS'WP'
p2906
F0.044848761494580877
sS'VBZ'
p2907
F0.0085333907091017895
sS'DT'
p2908
F0.045937618719959515
sS'#'
F0.018145861132454432
sS'RP'
p2909
F0.048568619800225234
sS'$'
F0.009659288560017151
sS'NN'
p2910
F0.013968876484268304
sS'FW'
p2911
F0.049197613599773905
sS'POS'
p2912
F0.0079788998610585016
sS'TO'
p2913
F0.020616675703732476
sS'PRP'
p2914
F0.04874240659235568
sS'RB'
p2915
F0.023941058026808033
sS'NNS'
p2916
F0.02613253114898019
sS'NNP'
p2917
F0.0064700963463965849
sS'VB'
p2918
F0.042777328578781519
sS'WRB'
p2919
F0.018310106411346699
sS'CC'
p2920
F0.020940634078110518
sS'LS'
p2921
F0.01256079158953655
sS'PDT'
p2922
F0.033741526754623552
sS'RBS'
p2923
F0.012145969477454006
sS'RBR'
p2924
F0.0061942015126813096
sS'CD'
p2925
F0.025494913106782029
sS'EX'
p2926
F0.027294363925118522
sS'IN'
p2927
F0.020864555043212236
sS'MD'
p2928
F0.013113638546411874
sS'NNPS'
p2929
F0.025812178936659658
sS'JJS'
p2930
F0.039901289708033527
sS'JJR'
p2931
F0.013228964591903307
sS'SYM'
p2932
F0.047998363111941833
sS'UH'
p2933
F0.041786442787199306
ssbs(S'RBS'
g2
tp2934
(imultinomial
Multinomial
p2935
(dp2936
g6
g7
(g8
tRp2937
sg10
F0
sg11
g7
(g8
tRp2938
S'PRP$'
p2939
F0.00041008490442608341
sS'VBG'
p2940
F0.01004140072194403
sS'FW'
p2941
F0.021647529776006133
sS'VBN'
p2942
F0.037637972450125512
sS'VBP'
p2943
F0.012555295792004019
sS'WDT'
p2944
F0.042077533519898652
sS'JJ'
p2945
F0.0093325371279374576
sS'WP'
p2946
F0.039080197256555753
sS'VBZ'
p2947
F0.028511865408786308
sS'DT'
p2948
F0.022362032510073408
sS'#'
F0.039103589632135831
sS'RP'
p2949
F0.015978357427004236
sS'$'
F0.023863891715148973
sS'NN'
p2950
F0.046883027475967599
sS'VBD'
p2951
F0.045397842130919082
sS'POS'
p2952
F0.041781011110340271
sS'TO'
p2953
F0.022600561303831781
sS'PRP'
p2954
F0.017108769928984129
sS'RB'
p2955
F0.027407408070855763
sS'NNS'
p2956
F0.0050584495177766363
sS'NNP'
p2957
F0.015097540640403233
sS'VB'
p2958
F0.03047381760974972
sS'WRB'
p2959
F0.018782226820349968
sS'CC'
p2960
F0.044966811708220901
sS'LS'
p2961
F0.046487813291057133
sS'PDT'
p2962
F0.023932146071418046
sS'RBS'
p2963
F0.030577668440551098
sS'RBR'
p2964
F0.014601128466688883
sS'CD'
p2965
F0.023515238220580856
sS'EX'
p2966
F0.037291184816692378
sS'IN'
p2967
F0.038854930666927738
sS'MD'
p2968
F0.028824094150116018
sS'NNPS'
p2969
F0.031861648186317738
sS'JJS'
p2970
F0.016269360373278672
sS'JJR'
p2971
F0.02266606602987388
sS'SYM'
p2972
F0.03556720756613025
sS'UH'
p2973
F0.031391759160921781
ssbs(S'LS'
g48
tp2974
(imultinomial
Multinomial
p2975
(dp2976
g6
g7
(g8
tRp2977
sg10
F0
sg11
g7
(g8
tRp2978
S'PRP$'
p2979
F0.047016583301296724
sS'VBG'
p2980
F0.032538419428824752
sS'VBD'
p2981
F0.033305209227802196
sS'VBN'
p2982
F0.012284261074246171
sS'VBP'
p2983
F0.034756843844527499
sS'WDT'
p2984
F0.034128737145125466
sS'JJ'
p2985
F0.044216609861597429
sS'WP'
p2986
F0.0024905960268376279
sS'VBZ'
p2987
F0.022175954519406921
sS'DT'
p2988
F0.01323028966690838
sS'#'
F0.0064865896810221329
sS'RP'
p2989
F0.037186757162065209
sS'$'
F0.027243526587074757
sS'NN'
p2990
F0.028553241194972913
sS'FW'
p2991
F0.0035083125337412131
sS'POS'
p2992
F0.029029235365958552
sS'TO'
p2993
F0.044020077978037822
sS'PRP'
p2994
F0.044284020418524653
sS'RB'
p2995
F0.031963389776769623
sS'NNS'
p2996
F0.0062688637867779366
sS'NNP'
p2997
F0.047027584033493164
sS'VB'
p2998
F0.0058535367897856469
sS'WRB'
p2999
F0.036934150284128928
sS'CC'
p3000
F0.012251914209152247
sS'LS'
p3001
F0.03828040524931587
sS'PDT'
p3002
F0.032728911966129585
sS'RBS'
p3003
F0.029512045286578734
sS'RBR'
p3004
F0.025332431085073541
sS'CD'
p3005
F0.02955558143442016
sS'EX'
p3006
F0.028454557972018343
sS'IN'
p3007
F0.036216918332079365
sS'MD'
p3008
F0.014004905412027032
sS'NNPS'
p3009
F0.026701110603842417
sS'JJS'
p3010
F0.025189384929652409
sS'JJR'
p3011
F0.011019053968571927
sS'SYM'
p3012
F0.021620438697425057
sS'UH'
p3013
F0.044629551164787458
ssbs.(dp1
(S'RB'
S'right'
p2
I01
tp3
(imultinomial
Multinomial
p4
(dp5
S'counts'
p6
ccollections
defaultdict
p7
(c__builtin__
float
p8
tRp9
sS'total'
p10
F0
sS'prob'
p11
g7
(g8
tRp12
I0
F0.88671412891103663
sI1
F0.11328587108896337
ssbs(S'CD'
g2
I00
tp13
(imultinomial
Multinomial
p14
(dp15
g6
g7
(g8
tRp16
sg10
F0
sg11
g7
(g8
tRp17
I0
F0.97363716964724434
sI1
F0.026362830352755662
ssbs(S'RBS'
S'left'
p18
I00
tp19
(imultinomial
Multinomial
p20
(dp21
g6
g7
(g8
tRp22
sg10
F0
sg11
g7
(g8
tRp23
I0
F0.025665841517714671
sI1
F0.97433415848228533
ssbs(S'PRP$'
g18
I00
tp24
(imultinomial
Multinomial
p25
(dp26
g6
g7
(g8
tRp27
sg10
F0
sg11
g7
(g8
tRp28
I0
F0.29405915514444037
sI1
F0.70594084485555963
ssbs(S'VBZ'
g2
I01
tp29
(imultinomial
Multinomial
p30
(dp31
g6
g7
(g8
tRp32
sg10
F0
sg11
g7
(g8
tRp33
I0
F0.1789209306695464
sI1
F0.8210790693304536
ssbs(S'NNP'
g18
I01
tp34
(imultinomial
Multinomial
p35
(dp36
g6
g7
(g8
tRp37
sg10
F0
sg11
g7
(g8
tRp38
I0
F0.0067011060740529427
sI1
F0.99329889392594706
ssbs(S'PRP$'
g2
I01
tp39
(imultinomial
Multinomial
p40
(dp41
g6
g7
(g8
tRp42
sg10
F0
sg11
g7
(g8
tRp43
I0
F0.10663962682712014
sI1
F0.89336037317287986
ssbs(S'POS'
g2
I00
tp44
(imultinomial
Multinomial
p45
(dp46
g6
g7
(g8
tRp47
sg10
F0
sg11
g7
(g8
tRp48
I0
F0.73815613408290448
sI1
F0.26184386591709552
ssbs(S'MD'
g18
I01
tp49
(imultinomial
Multinomial
p50
(dp51
g6
g7
(g8
tRp52
sg10
F0
sg11
g7
(g8
tRp53
I0
F0.35103366439578676
sI1
F0.64896633560421324
ssbs(S'VBG'
g2
I01
tp54
(imultinomial
Multinomial
p55
(dp56
g6
g7
(g8
tRp57
sg10
F0
sg11
g7
(g8
tRp58
I0
F0.085150112924365584
sI1
F0.91484988707563442
ssbs(S'PDT'
g2
I01
tp59
(imultinomial
Multinomial
p60
(dp61
g6
g7
(g8
tRp62
sg10
F0
sg11
g7
(g8
tRp63
I0
F0.86677282325802585
sI1
F0.13322717674197415
ssbs(S'#'
g18
I00
tp64
(imultinomial
Multinomial
p65
(dp66
g6
g7
(g8
tRp67
sg10
F0
sg11
g7
(g8
tRp68
I0
F0.76905850530908626
sI1
F0.23094149469091374
ssbs(S'RB'
g18
I01
tp69
(imultinomial
Multinomial
p70
(dp71
g6
g7
(g8
tRp72
sg10
F0
sg11
g7
(g8
tRp73
I0
F0.090037799165653243
sI1
F0.90996220083434676
ssbs(S'JJS'
g18
I01
tp74
(imultinomial
Multinomial
p75
(dp76
g6
g7
(g8
tRp77
sg10
F0
sg11
g7
(g8
tRp78
I0
F0.037373896127787076
sI1
F0.96262610387221292
ssbs(S'RBS'
g2
I00
tp79
(imultinomial
Multinomial
p80
(dp81
g6
g7
(g8
tRp82
sg10
F0
sg11
g7
(g8
tRp83
I0
F0.84079174490024844
sI1
F0.15920825509975156
ssbs(S'VBN'
g2
I00
tp84
(imultinomial
Multinomial
p85
(dp86
g6
g7
(g8
tRp87
sg10
F0
sg11
g7
(g8
tRp88
I0
F0.98844331086049619
sI1
F0.011556689139503806
ssbs(S'NNS'
g18
I00
tp89
(imultinomial
Multinomial
p90
(dp91
g6
g7
(g8
tRp92
sg10
F0
sg11
g7
(g8
tRp93
I0
F0.99201265214110568
sI1
F0.0079873478588943225
ssbs(S'PDT'
g18
I00
tp94
(imultinomial
Multinomial
p95
(dp96
g6
g7
(g8
tRp97
sg10
F0
sg11
g7
(g8
tRp98
I0
F0.82543885351488155
sI1
F0.17456114648511845
ssbs(S'NN'
g2
I00
tp99
(imultinomial
Multinomial
p100
(dp101
g6
g7
(g8
tRp102
sg10
F0
sg11
g7
(g8
tRp103
I0
F0.58058392148527349
sI1
F0.41941607851472651
ssbs(S'NNP'
g2
I01
tp104
(imultinomial
Multinomial
p105
(dp106
g6
g7
(g8
tRp107
sg10
F0
sg11
g7
(g8
tRp108
I0
F0.67448631733785191
sI1
F0.32551368266214809
ssbs(S'RP'
g18
I01
tp109
(imultinomial
Multinomial
p110
(dp111
g6
g7
(g8
tRp112
sg10
F0
sg11
g7
(g8
tRp113
I0
F0.51807479467903017
sI1
F0.48192520532096983
ssbs(S'JJR'
g2
I01
tp114
(imultinomial
Multinomial
p115
(dp116
g6
g7
(g8
tRp117
sg10
F0
sg11
g7
(g8
tRp118
I0
F0.81943821469493883
sI1
F0.18056178530506117
ssbs(S'RBR'
g18
I00
tp119
(imultinomial
Multinomial
p120
(dp121
g6
g7
(g8
tRp122
sg10
F0
sg11
g7
(g8
tRp123
I0
F0.46510398887307469
sI1
F0.53489601112692531
ssbs(S'LS'
g18
I01
tp124
(imultinomial
Multinomial
p125
(dp126
g6
g7
(g8
tRp127
sg10
F0
sg11
g7
(g8
tRp128
I0
F0.1565882005064263
sI1
F0.8434117994935737
ssbs(S'VB'
g2
I01
tp129
(imultinomial
Multinomial
p130
(dp131
g6
g7
(g8
tRp132
sg10
F0
sg11
g7
(g8
tRp133
I0
F0.34786844895354418
sI1
F0.65213155104645582
ssbs(S'CC'
g2
I00
tp134
(imultinomial
Multinomial
p135
(dp136
g6
g7
(g8
tRp137
sg10
F0
sg11
g7
(g8
tRp138
I0
F0.58043956618541181
sI1
F0.41956043381458819
ssbs(S'SYM'
g2
I00
tp139
(imultinomial
Multinomial
p140
(dp141
g6
g7
(g8
tRp142
sg10
F0
sg11
g7
(g8
tRp143
I0
F0.93563312386823694
sI1
F0.064366876131763062
ssbs(S'RBS'
g2
I01
tp144
(imultinomial
Multinomial
p145
(dp146
g6
g7
(g8
tRp147
sg10
F0
sg11
g7
(g8
tRp148
I0
F0.19569692259771676
sI1
F0.80430307740228324
ssbs(S'CD'
g18
I01
tp149
(imultinomial
Multinomial
p150
(dp151
g6
g7
(g8
tRp152
sg10
F0
sg11
g7
(g8
tRp153
I0
F0.50483709816198474
sI1
F0.49516290183801526
ssbs(S'CC'
g18
I01
tp154
(imultinomial
Multinomial
p155
(dp156
g6
g7
(g8
tRp157
sg10
F0
sg11
g7
(g8
tRp158
I0
F0.61017797143226993
sI1
F0.38982202856773007
ssbs(S'TO'
g18
I01
tp159
(imultinomial
Multinomial
p160
(dp161
g6
g7
(g8
tRp162
sg10
F0
sg11
g7
(g8
tRp163
I0
F0.061718141218224276
sI1
F0.93828185878177572
ssbs(S'JJR'
g18
I01
tp164
(imultinomial
Multinomial
p165
(dp166
g6
g7
(g8
tRp167
sg10
F0
sg11
g7
(g8
tRp168
I0
F0.19194612625260554
sI1
F0.80805387374739446
ssbs(S'LS'
g2
I00
tp169
(imultinomial
Multinomial
p170
(dp171
g6
g7
(g8
tRp172
sg10
F0
sg11
g7
(g8
tRp173
I0
F0.79844011310560326
sI1
F0.20155988689439674
ssbs(S'RBR'
g2
I00
tp174
(imultinomial
Multinomial
p175
(dp176
g6
g7
(g8
tRp177
sg10
F0
sg11
g7
(g8
tRp178
I0
F0.55697941412066787
sI1
F0.44302058587933213
ssbs(S'RP'
g2
I01
tp179
(imultinomial
Multinomial
p180
(dp181
g6
g7
(g8
tRp182
sg10
F0
sg11
g7
(g8
tRp183
I0
F0.56446692469843396
sI1
F0.43553307530156604
ssbs(S'VBD'
g18
I00
tp184
(imultinomial
Multinomial
p185
(dp186
g6
g7
(g8
tRp187
sg10
F0
sg11
g7
(g8
tRp188
I0
F0.40666978623209216
sI1
F0.59333021376790784
ssbs(S'NNS'
g2
I01
tp189
(imultinomial
Multinomial
p190
(dp191
g6
g7
(g8
tRp192
sg10
F0
sg11
g7
(g8
tRp193
I0
F0.92785333415461213
sI1
F0.07214666584538787
ssbs(S'$'
g18
I01
tp194
(imultinomial
Multinomial
p195
(dp196
g6
g7
(g8
tRp197
sg10
F0
sg11
g7
(g8
tRp198
I0
F0.046011280936596344
sI1
F0.95398871906340366
ssbs(S'JJ'
g18
I00
tp199
(imultinomial
Multinomial
p200
(dp201
g6
g7
(g8
tRp202
sg10
F0
sg11
g7
(g8
tRp203
I0
F0.099024481079456383
sI1
F0.90097551892054362
ssbs(S'DT'
g18
I01
tp204
(imultinomial
Multinomial
p205
(dp206
g6
g7
(g8
tRp207
sg10
F0
sg11
g7
(g8
tRp208
I0
F0.099729917717398586
sI1
F0.90027008228260141
ssbs(S'VBN'
g18
I01
tp209
(imultinomial
Multinomial
p210
(dp211
g6
g7
(g8
tRp212
sg10
F0
sg11
g7
(g8
tRp213
I0
F0.6219288910143721
sI1
F0.3780711089856279
ssbs(S'IN'
g18
I00
tp214
(imultinomial
Multinomial
p215
(dp216
g6
g7
(g8
tRp217
sg10
F0
sg11
g7
(g8
tRp218
I0
F0.40335609246624127
sI1
F0.59664390753375873
ssbs(S'JJ'
g2
I00
tp219
(imultinomial
Multinomial
p220
(dp221
g6
g7
(g8
tRp222
sg10
F0
sg11
g7
(g8
tRp223
I0
F0.70529482051871839
sI1
F0.29470517948128161
ssbs(S'JJS'
g2
I01
tp224
(imultinomial
Multinomial
p225
(dp226
g6
g7
(g8
tRp227
sg10
F0
sg11
g7
(g8
tRp228
I0
F0.73340462190927802
sI1
F0.26659537809072198
ssbs(S'UH'
g18
I01
tp229
(imultinomial
Multinomial
p230
(dp231
g6
g7
(g8
tRp232
sg10
F0
sg11
g7
(g8
tRp233
I0
F0.89951035364717846
sI1
F0.10048964635282154
ssbs(S'WP'
g2
I00
tp234
(imultinomial
Multinomial
p235
(dp236
g6
g7
(g8
tRp237
sg10
F0
sg11
g7
(g8
tRp238
I0
F0.93836466130328189
sI1
F0.061635338696718112
ssbs(S'DT'
g2
I00
tp239
(imultinomial
Multinomial
p240
(dp241
g6
g7
(g8
tRp242
sg10
F0
sg11
g7
(g8
tRp243
I0
F0.84177954712011949
sI1
F0.15822045287988051
ssbs(S'MD'
g2
I01
tp244
(imultinomial
Multinomial
p245
(dp246
g6
g7
(g8
tRp247
sg10
F0
sg11
g7
(g8
tRp248
I0
F0.85469593206751604
sI1
F0.14530406793248396
ssbs(S'VBP'
g18
I00
tp249
(imultinomial
Multinomial
p250
(dp251
g6
g7
(g8
tRp252
sg10
F0
sg11
g7
(g8
tRp253
I0
F0.57133906518422373
sI1
F0.42866093481577627
ssbs(S'VBG'
g18
I01
tp254
(imultinomial
Multinomial
p255
(dp256
g6
g7
(g8
tRp257
sg10
F0
sg11
g7
(g8
tRp258
I0
F0.37910366003540563
sI1
F0.62089633996459437
ssbs(S'NNPS'
g2
I01
tp259
(imultinomial
Multinomial
p260
(dp261
g6
g7
(g8
tRp262
sg10
F0
sg11
g7
(g8
tRp263
I0
F0.24168650874183395
sI1
F0.75831349125816605
ssbs(S'POS'
g18
I01
tp264
(imultinomial
Multinomial
p265
(dp266
g6
g7
(g8
tRp267
sg10
F0
sg11
g7
(g8
tRp268
I0
F0.28287246677999422
sI1
F0.71712753322000578
ssbs(S'VB'
g18
I00
tp269
(imultinomial
Multinomial
p270
(dp271
g6
g7
(g8
tRp272
sg10
F0
sg11
g7
(g8
tRp273
I0
F0.014964057736253977
sI1
F0.98503594226374602
ssbs(S'VBZ'
g18
I01
tp274
(imultinomial
Multinomial
p275
(dp276
g6
g7
(g8
tRp277
sg10
F0
sg11
g7
(g8
tRp278
I0
F0.41304421574513572
sI1
F0.58695578425486428
ssbs(S'NNPS'
g18
I00
tp279
(imultinomial
Multinomial
p280
(dp281
g6
g7
(g8
tRp282
sg10
F0
sg11
g7
(g8
tRp283
I0
F0.89853658646461987
sI1
F0.10146341353538013
ssbs(S'SYM'
g18
I00
tp284
(imultinomial
Multinomial
p285
(dp286
g6
g7
(g8
tRp287
sg10
F0
sg11
g7
(g8
tRp288
I0
F0.030416704383144033
sI1
F0.96958329561685597
ssbs(S'VBP'
g2
I00
tp289
(imultinomial
Multinomial
p290
(dp291
g6
g7
(g8
tRp292
sg10
F0
sg11
g7
(g8
tRp293
I0
F0.87875611950492005
sI1
F0.12124388049507995
ssbs(S'WDT'
g2
I00
tp294
(imultinomial
Multinomial
p295
(dp296
g6
g7
(g8
tRp297
sg10
F0
sg11
g7
(g8
tRp298
I0
F0.033959951074058692
sI1
F0.96604004892594131
ssbs(S'EX'
g2
I01
tp299
(imultinomial
Multinomial
p300
(dp301
g6
g7
(g8
tRp302
sg10
F0
sg11
g7
(g8
tRp303
I0
F0.30464313948289334
sI1
F0.69535686051710666
ssbs(S'*'
g2
I00
tp304
(imultinomial
Multinomial
p305
(dp306
g6
g7
(g8
tRp307
sg10
F0
sg11
g7
(g8
tRp308
I0
F0.79244597974180675
sI1
F0.20755402025819325
ssbs(S'IN'
g2
I01
tp309
(imultinomial
Multinomial
p310
(dp311
g6
g7
(g8
tRp312
sg10
F0
sg11
g7
(g8
tRp313
I0
F0.72094394153981156
sI1
F0.27905605846018844
ssbs(S'WP'
g18
I00
tp314
(imultinomial
Multinomial
p315
(dp316
g6
g7
(g8
tRp317
sg10
F0
sg11
g7
(g8
tRp318
I0
F0.15977563053020039
sI1
F0.84022436946979961
ssbs(S'NN'
g18
I00
tp319
(imultinomial
Multinomial
p320
(dp321
g6
g7
(g8
tRp322
sg10
F0
sg11
g7
(g8
tRp323
I0
F0.25995331761254614
sI1
F0.74004668238745386
ssbs(S'PRP'
g18
I00
tp324
(imultinomial
Multinomial
p325
(dp326
g6
g7
(g8
tRp327
sg10
F0
sg11
g7
(g8
tRp328
I0
F0.81566619203748825
sI1
F0.18433380796251175
ssbs(S'FW'
g2
I00
tp329
(imultinomial
Multinomial
p330
(dp331
g6
g7
(g8
tRp332
sg10
F0
sg11
g7
(g8
tRp333
I0
F0.90056504727320186
sI1
F0.099434952726798143
ssbs(S'WRB'
g18
I01
tp334
(imultinomial
Multinomial
p335
(dp336
g6
g7
(g8
tRp337
sg10
F0
sg11
g7
(g8
tRp338
I0
F0.018365062353200678
sI1
F0.98163493764679932
ssbs(S'PRP'
g2
I01
tp339
(imultinomial
Multinomial
p340
(dp341
g6
g7
(g8
tRp342
sg10
F0
sg11
g7
(g8
tRp343
I0
F0.88343577502760184
sI1
F0.11656422497239816
ssbs(S'WDT'
g2
I01
tp344
(imultinomial
Multinomial
p345
(dp346
g6
g7
(g8
tRp347
sg10
F0
sg11
g7
(g8
tRp348
I0
F0.8979743308948549
sI1
F0.1020256691051451
ssbs(S'RB'
g2
I00
tp349
(imultinomial
Multinomial
p350
(dp351
g6
g7
(g8
tRp352
sg10
F0
sg11
g7
(g8
tRp353
I0
F0.98276367970235989
sI1
F0.017236320297640106
ssbs(S'#'
g2
I01
tp354
(imultinomial
Multinomial
p355
(dp356
g6
g7
(g8
tRp357
sg10
F0
sg11
g7
(g8
tRp358
I0
F0.49901040654346052
sI1
F0.50098959345653948
ssbs(S'CD'
g2
I01
tp359
(imultinomial
Multinomial
p360
(dp361
g6
g7
(g8
tRp362
sg10
F0
sg11
g7
(g8
tRp363
I0
F0.63451865941482077
sI1
F0.36548134058517923
ssbs(S'WDT'
g18
I01
tp364
(imultinomial
Multinomial
p365
(dp366
g6
g7
(g8
tRp367
sg10
F0
sg11
g7
(g8
tRp368
I0
F0.88914354935946194
sI1
F0.11085645064053806
ssbs(S'EX'
g18
I00
tp369
(imultinomial
Multinomial
p370
(dp371
g6
g7
(g8
tRp372
sg10
F0
sg11
g7
(g8
tRp373
I0
F0.56708571856561707
sI1
F0.43291428143438293
ssbs(S'VBD'
g18
I01
tp374
(imultinomial
Multinomial
p375
(dp376
g6
g7
(g8
tRp377
sg10
F0
sg11
g7
(g8
tRp378
I0
F0.82817235488778818
sI1
F0.17182764511221182
ssbs(S'PRP$'
g2
I00
tp379
(imultinomial
Multinomial
p380
(dp381
g6
g7
(g8
tRp382
sg10
F0
sg11
g7
(g8
tRp383
I0
F0.88243924259713069
sI1
F0.11756075740286931
ssbs(S'VB'
g18
I01
tp384
(imultinomial
Multinomial
p385
(dp386
g6
g7
(g8
tRp387
sg10
F0
sg11
g7
(g8
tRp388
I0
F0.87357010761875675
sI1
F0.12642989238124325
ssbs(S'POS'
g2
I01
tp389
(imultinomial
Multinomial
p390
(dp391
g6
g7
(g8
tRp392
sg10
F0
sg11
g7
(g8
tRp393
I0
F0.46182715720593115
sI1
F0.53817284279406885
ssbs(S'PRP$'
g18
I01
tp394
(imultinomial
Multinomial
p395
(dp396
g6
g7
(g8
tRp397
sg10
F0
sg11
g7
(g8
tRp398
I0
F0.78969999717476547
sI1
F0.21030000282523453
ssbs(S'VBZ'
g2
I00
tp399
(imultinomial
Multinomial
p400
(dp401
g6
g7
(g8
tRp402
sg10
F0
sg11
g7
(g8
tRp403
I0
F0.65745108185560241
sI1
F0.34254891814439759
ssbs(S'VBG'
g2
I00
tp404
(imultinomial
Multinomial
p405
(dp406
g6
g7
(g8
tRp407
sg10
F0
sg11
g7
(g8
tRp408
I0
F0.19832936913825405
sI1
F0.80167063086174595
ssbs(S'NNP'
g18
I00
tp409
(imultinomial
Multinomial
p410
(dp411
g6
g7
(g8
tRp412
sg10
F0
sg11
g7
(g8
tRp413
I0
F0.9221897099017905
sI1
F0.0778102900982095
ssbs(S'MD'
g18
I00
tp414
(imultinomial
Multinomial
p415
(dp416
g6
g7
(g8
tRp417
sg10
F0
sg11
g7
(g8
tRp418
I0
F0.40364188031015991
sI1
F0.59635811968984009
ssbs(S'PRP'
g18
I01
tp419
(imultinomial
Multinomial
p420
(dp421
g6
g7
(g8
tRp422
sg10
F0
sg11
g7
(g8
tRp423
I0
F0.92652869710259633
sI1
F0.073471302897403667
ssbs(S'RB'
g18
I00
tp424
(imultinomial
Multinomial
p425
(dp426
g6
g7
(g8
tRp427
sg10
F0
sg11
g7
(g8
tRp428
I0
F0.85136440405717217
sI1
F0.14863559594282783
ssbs(S'JJS'
g18
I00
tp429
(imultinomial
Multinomial
p430
(dp431
g6
g7
(g8
tRp432
sg10
F0
sg11
g7
(g8
tRp433
I0
F0.40224256748281251
sI1
F0.59775743251718749
ssbs(S'PDT'
g2
I00
tp434
(imultinomial
Multinomial
p435
(dp436
g6
g7
(g8
tRp437
sg10
F0
sg11
g7
(g8
tRp438
I0
F0.085785895447308524
sI1
F0.91421410455269148
ssbs(S'FW'
g18
I00
tp439
(imultinomial
Multinomial
p440
(dp441
g6
g7
(g8
tRp442
sg10
F0
sg11
g7
(g8
tRp443
I0
F0.15003784025810141
sI1
F0.84996215974189859
ssbs(S'VBN'
g2
I01
tp444
(imultinomial
Multinomial
p445
(dp446
g6
g7
(g8
tRp447
sg10
F0
sg11
g7
(g8
tRp448
I0
F0.92790012525547683
sI1
F0.072099874744523174
ssbs(S'#'
g18
I01
tp449
(imultinomial
Multinomial
p450
(dp451
g6
g7
(g8
tRp452
sg10
F0
sg11
g7
(g8
tRp453
I0
F0.42407923983356
sI1
F0.57592076016644
ssbs(S'PDT'
g18
I01
tp454
(imultinomial
Multinomial
p455
(dp456
g6
g7
(g8
tRp457
sg10
F0
sg11
g7
(g8
tRp458
I0
F0.43249133261562001
sI1
F0.56750866738437999
ssbs(S'$'
g2
I00
tp459
(imultinomial
Multinomial
p460
(dp461
g6
g7
(g8
tRp462
sg10
F0
sg11
g7
(g8
tRp463
I0
F0.72732992875122759
sI1
F0.27267007124877241
ssbs(S'RP'
g18
I00
tp464
(imultinomial
Multinomial
p465
(dp466
g6
g7
(g8
tRp467
sg10
F0
sg11
g7
(g8
tRp468
I0
F0.55741681315919356
sI1
F0.44258318684080644
ssbs(S'TO'
g18
I00
tp469
(imultinomial
Multinomial
p470
(dp471
g6
g7
(g8
tRp472
sg10
F0
sg11
g7
(g8
tRp473
I0
F0.54138472869706389
sI1
F0.45861527130293611
ssbs(S'UH'
g2
I01
tp474
(imultinomial
Multinomial
p475
(dp476
g6
g7
(g8
tRp477
sg10
F0
sg11
g7
(g8
tRp478
I0
F0.99497400516283219
sI1
F0.0050259948371678131
ssbs(S'NN'
g2
I01
tp479
(imultinomial
Multinomial
p480
(dp481
g6
g7
(g8
tRp482
sg10
F0
sg11
g7
(g8
tRp483
I0
F0.56031364324028821
sI1
F0.43968635675971179
ssbs(S'WRB'
g2
I01
tp484
(imultinomial
Multinomial
p485
(dp486
g6
g7
(g8
tRp487
sg10
F0
sg11
g7
(g8
tRp488
I0
F0.69761287098641134
sI1
F0.30238712901358866
ssbs(S'RBR'
g18
I01
tp489
(imultinomial
Multinomial
p490
(dp491
g6
g7
(g8
tRp492
sg10
F0
sg11
g7
(g8
tRp493
I0
F0.38201973962992819
sI1
F0.61798026037007181
ssbs(S'NNP'
g2
I00
tp494
(imultinomial
Multinomial
p495
(dp496
g6
g7
(g8
tRp497
sg10
F0
sg11
g7
(g8
tRp498
I0
F0.52199499639278102
sI1
F0.47800500360721898
ssbs(S'VB'
g2
I00
tp499
(imultinomial
Multinomial
p500
(dp501
g6
g7
(g8
tRp502
sg10
F0
sg11
g7
(g8
tRp503
I0
F0.4737949994113736
sI1
F0.5262050005886264
ssbs(S'JJR'
g2
I00
tp504
(imultinomial
Multinomial
p505
(dp506
g6
g7
(g8
tRp507
sg10
F0
sg11
g7
(g8
tRp508
I0
F0.94895477205126244
sI1
F0.051045227948737559
ssbs(S'LS'
g18
I00
tp509
(imultinomial
Multinomial
p510
(dp511
g6
g7
(g8
tRp512
sg10
F0
sg11
g7
(g8
tRp513
I0
F0.20836730922147761
sI1
F0.79163269077852239
ssbs(S'CC'
g18
I00
tp514
(imultinomial
Multinomial
p515
(dp516
g6
g7
(g8
tRp517
sg10
F0
sg11
g7
(g8
tRp518
I0
F0.58223369386249735
sI1
F0.41776630613750265
ssbs(S'VBD'
g2
I01
tp519
(imultinomial
Multinomial
p520
(dp521
g6
g7
(g8
tRp522
sg10
F0
sg11
g7
(g8
tRp523
I0
F0.051545572664572714
sI1
F0.94845442733542729
ssbs(S'CC'
g2
I01
tp524
(imultinomial
Multinomial
p525
(dp526
g6
g7
(g8
tRp527
sg10
F0
sg11
g7
(g8
tRp528
I0
F0.34461394750809593
sI1
F0.65538605249190407
ssbs(S'SYM'
g2
I01
tp529
(imultinomial
Multinomial
p530
(dp531
g6
g7
(g8
tRp532
sg10
F0
sg11
g7
(g8
tRp533
I0
F0.94740929397034979
sI1
F0.052590706029650214
ssbs(S'LS'
g2
I01
tp534
(imultinomial
Multinomial
p535
(dp536
g6
g7
(g8
tRp537
sg10
F0
sg11
g7
(g8
tRp538
I0
F0.041166412174996725
sI1
F0.95883358782500328
ssbs(S'CD'
g18
I00
tp539
(imultinomial
Multinomial
p540
(dp541
g6
g7
(g8
tRp542
sg10
F0
sg11
g7
(g8
tRp543
I0
F0.093810899042496398
sI1
F0.9061891009575036
ssbs(S'RBR'
g2
I01
tp544
(imultinomial
Multinomial
p545
(dp546
g6
g7
(g8
tRp547
sg10
F0
sg11
g7
(g8
tRp548
I0
F0.089667618965803109
sI1
F0.91033238103419689
ssbs(S'JJR'
g18
I00
tp549
(imultinomial
Multinomial
p550
(dp551
g6
g7
(g8
tRp552
sg10
F0
sg11
g7
(g8
tRp553
I0
F0.88766490625819161
sI1
F0.11233509374180839
ssbs(S'RP'
g2
I00
tp554
(imultinomial
Multinomial
p555
(dp556
g6
g7
(g8
tRp557
sg10
F0
sg11
g7
(g8
tRp558
I0
F0.86264391439260846
sI1
F0.13735608560739154
ssbs(S'$'
g2
I01
tp559
(imultinomial
Multinomial
p560
(dp561
g6
g7
(g8
tRp562
sg10
F0
sg11
g7
(g8
tRp563
I0
F0.021894854567823696
sI1
F0.9781051454321763
ssbs(S'FW'
g18
I01
tp564
(imultinomial
Multinomial
p565
(dp566
g6
g7
(g8
tRp567
sg10
F0
sg11
g7
(g8
tRp568
I0
F0.32879160138575358
sI1
F0.67120839861424642
ssbs(S'NNS'
g2
I00
tp569
(imultinomial
Multinomial
p570
(dp571
g6
g7
(g8
tRp572
sg10
F0
sg11
g7
(g8
tRp573
I0
F0.061170817057793592
sI1
F0.93882918294220641
ssbs(S'DT'
g18
I00
tp574
(imultinomial
Multinomial
p575
(dp576
g6
g7
(g8
tRp577
sg10
F0
sg11
g7
(g8
tRp578
I0
F0.77936794602340409
sI1
F0.22063205397659591
ssbs(S'VBD'
g2
I00
tp579
(imultinomial
Multinomial
p580
(dp581
g6
g7
(g8
tRp582
sg10
F0
sg11
g7
(g8
tRp583
I0
F0.35544371167129463
sI1
F0.64455628832870537
ssbs(S'IN'
g18
I01
tp584
(imultinomial
Multinomial
p585
(dp586
g6
g7
(g8
tRp587
sg10
F0
sg11
g7
(g8
tRp588
I0
F0.20320471637371618
sI1
F0.79679528362628382
ssbs(S'$'
g18
I00
tp589
(imultinomial
Multinomial
p590
(dp591
g6
g7
(g8
tRp592
sg10
F0
sg11
g7
(g8
tRp593
I0
F0.99438377082137497
sI1
F0.0056162291786250318
ssbs(S'JJS'
g2
I00
tp594
(imultinomial
Multinomial
p595
(dp596
g6
g7
(g8
tRp597
sg10
F0
sg11
g7
(g8
tRp598
I0
F0.00014063416776011195
sI1
F0.99985936583223989
ssbs(S'JJ'
g18
I01
tp599
(imultinomial
Multinomial
p600
(dp601
g6
g7
(g8
tRp602
sg10
F0
sg11
g7
(g8
tRp603
I0
F0.72720251957644344
sI1
F0.27279748042355656
ssbs(S'WP'
g2
I01
tp604
(imultinomial
Multinomial
p605
(dp606
g6
g7
(g8
tRp607
sg10
F0
sg11
g7
(g8
tRp608
I0
F0.85345117916669688
sI1
F0.14654882083330312
ssbs(S'VBN'
g18
I00
tp609
(imultinomial
Multinomial
p610
(dp611
g6
g7
(g8
tRp612
sg10
F0
sg11
g7
(g8
tRp613
I0
F0.9966294954212177
sI1
F0.0033705045787822963
ssbs(S'JJ'
g2
I01
tp614
(imultinomial
Multinomial
p615
(dp616
g6
g7
(g8
tRp617
sg10
F0
sg11
g7
(g8
tRp618
I0
F0.097900770323732345
sI1
F0.90209922967626766
ssbs(S'TO'
g2
I00
tp619
(imultinomial
Multinomial
p620
(dp621
g6
g7
(g8
tRp622
sg10
F0
sg11
g7
(g8
tRp623
I0
F0.55905343249410688
sI1
F0.44094656750589312
ssbs(S'DT'
g2
I01
tp624
(imultinomial
Multinomial
p625
(dp626
g6
g7
(g8
tRp627
sg10
F0
sg11
g7
(g8
tRp628
I0
F0.46735117816726213
sI1
F0.53264882183273787
ssbs(S'VBP'
g18
I01
tp629
(imultinomial
Multinomial
p630
(dp631
g6
g7
(g8
tRp632
sg10
F0
sg11
g7
(g8
tRp633
I0
F0.25167109800028653
sI1
F0.74832890199971347
ssbs(S'VBG'
g18
I00
tp634
(imultinomial
Multinomial
p635
(dp636
g6
g7
(g8
tRp637
sg10
F0
sg11
g7
(g8
tRp638
I0
F0.25182934246268074
sI1
F0.74817065753731926
ssbs(S'TO'
g2
I01
tp639
(imultinomial
Multinomial
p640
(dp641
g6
g7
(g8
tRp642
sg10
F0
sg11
g7
(g8
tRp643
I0
F0.85304304197977521
sI1
F0.14695695802022479
ssbs(S'NNS'
g18
I01
tp644
(imultinomial
Multinomial
p645
(dp646
g6
g7
(g8
tRp647
sg10
F0
sg11
g7
(g8
tRp648
I0
F0.50937762541584397
sI1
F0.49062237458415603
ssbs(S'MD'
g2
I00
tp649
(imultinomial
Multinomial
p650
(dp651
g6
g7
(g8
tRp652
sg10
F0
sg11
g7
(g8
tRp653
I0
F0.047609211087275116
sI1
F0.95239078891272488
ssbs(S'*'
g18
I01
tp654
(imultinomial
Multinomial
p655
(dp656
g6
g7
(g8
tRp657
sg10
F0
sg11
g7
(g8
tRp658
I0
F0.24187000069301312
sI1
F0.75812999930698688
ssbs(S'NNPS'
g18
I01
tp659
(imultinomial
Multinomial
p660
(dp661
g6
g7
(g8
tRp662
sg10
F0
sg11
g7
(g8
tRp663
I0
F0.33116658207979321
sI1
F0.66883341792020679
ssbs(S'NNPS'
g2
I00
tp664
(imultinomial
Multinomial
p665
(dp666
g6
g7
(g8
tRp667
sg10
F0
sg11
g7
(g8
tRp668
I0
F0.76367089735322202
sI1
F0.23632910264677798
ssbs(S'POS'
g18
I00
tp669
(imultinomial
Multinomial
p670
(dp671
g6
g7
(g8
tRp672
sg10
F0
sg11
g7
(g8
tRp673
I0
F0.58899484536541813
sI1
F0.41100515463458187
ssbs(S'VBZ'
g18
I00
tp674
(imultinomial
Multinomial
p675
(dp676
g6
g7
(g8
tRp677
sg10
F0
sg11
g7
(g8
tRp678
I0
F0.5230642855371499
sI1
F0.4769357144628501
ssbs(S'VBP'
g2
I01
tp679
(imultinomial
Multinomial
p680
(dp681
g6
g7
(g8
tRp682
sg10
F0
sg11
g7
(g8
tRp683
I0
F0.33601063037711343
sI1
F0.66398936962288657
ssbs(S'*'
g2
I01
tp684
(imultinomial
Multinomial
p685
(dp686
g6
g7
(g8
tRp687
sg10
F0
sg11
g7
(g8
tRp688
I0
F0.40052738287332235
sI1
F0.59947261712667765
ssbs(S'SYM'
g18
I01
tp689
(imultinomial
Multinomial
p690
(dp691
g6
g7
(g8
tRp692
sg10
F0
sg11
g7
(g8
tRp693
I0
F0.85316983701665794
sI1
F0.14683016298334206
ssbs(S'WP'
g18
I01
tp694
(imultinomial
Multinomial
p695
(dp696
g6
g7
(g8
tRp697
sg10
F0
sg11
g7
(g8
tRp698
I0
F0.83008978283248414
sI1
F0.16991021716751586
ssbs(S'UH'
g18
I00
tp699
(imultinomial
Multinomial
p700
(dp701
g6
g7
(g8
tRp702
sg10
F0
sg11
g7
(g8
tRp703
I0
F0.30846659951927446
sI1
F0.69153340048072554
ssbs(S'EX'
g2
I00
tp704
(imultinomial
Multinomial
p705
(dp706
g6
g7
(g8
tRp707
sg10
F0
sg11
g7
(g8
tRp708
I0
F0.59256782496209925
sI1
F0.40743217503790075
ssbs(S'WRB'
g2
I00
tp709
(imultinomial
Multinomial
p710
(dp711
g6
g7
(g8
tRp712
sg10
F0
sg11
g7
(g8
tRp713
I0
F0.18514649371537928
sI1
F0.81485350628462072
ssbs(S'IN'
g2
I00
tp714
(imultinomial
Multinomial
p715
(dp716
g6
g7
(g8
tRp717
sg10
F0
sg11
g7
(g8
tRp718
I0
F0.39327944680399962
sI1
F0.60672055319600038
ssbs(S'*'
g18
I00
tp719
(imultinomial
Multinomial
p720
(dp721
g6
g7
(g8
tRp722
sg10
F0
sg11
g7
(g8
tRp723
I0
F0.13785049234749447
sI1
F0.86214950765250553
ssbs(S'NN'
g18
I01
tp724
(imultinomial
Multinomial
p725
(dp726
g6
g7
(g8
tRp727
sg10
F0
sg11
g7
(g8
tRp728
I0
F0.45480568512504926
sI1
F0.54519431487495074
ssbs(S'FW'
g2
I01
tp729
(imultinomial
Multinomial
p730
(dp731
g6
g7
(g8
tRp732
sg10
F0
sg11
g7
(g8
tRp733
I0
F0.41201557882639028
sI1
F0.58798442117360972
ssbs(S'WRB'
g18
I00
tp734
(imultinomial
Multinomial
p735
(dp736
g6
g7
(g8
tRp737
sg10
F0
sg11
g7
(g8
tRp738
I0
F0.23989424310158192
sI1
F0.76010575689841808
ssbs(S'UH'
g2
I00
tp739
(imultinomial
Multinomial
p740
(dp741
g6
g7
(g8
tRp742
sg10
F0
sg11
g7
(g8
tRp743
I0
F0.019238017522742901
sI1
F0.9807619824772571
ssbs(S'RBS'
g18
I01
tp744
(imultinomial
Multinomial
p745
(dp746
g6
g7
(g8
tRp747
sg10
F0
sg11
g7
(g8
tRp748
I0
F0.96115825104621466
sI1
F0.038841748953785338
ssbs(S'#'
g2
I00
tp749
(imultinomial
Multinomial
p750
(dp751
g6
g7
(g8
tRp752
sg10
F0
sg11
g7
(g8
tRp753
I0
F0.31885256289602115
sI1
F0.68114743710397885
ssbs(S'PRP'
g2
I00
tp754
(imultinomial
Multinomial
p755
(dp756
g6
g7
(g8
tRp757
sg10
F0
sg11
g7
(g8
tRp758
I0
F0.90332965634869833
sI1
F0.096670343651301671
ssbs(S'WDT'
g18
I00
tp759
(imultinomial
Multinomial
p760
(dp761
g6
g7
(g8
tRp762
sg10
F0
sg11
g7
(g8
tRp763
I0
F0.192284178972153
sI1
F0.807715821027847
ssbs(S'EX'
g18
I01
tp764
(imultinomial
Multinomial
p765
(dp766
g6
g7
(g8
tRp767
sg10
F0
sg11
g7
(g8
tRp768
I0
F0.44382966237245758
sI1
F0.55617033762754242
ssbs.